ccollections
defaultdict
p0
(tRp1
S'demand'
p2
F-0.004407112583381452
sS'four'
p3
F-0.11470089412203381
sS'protest'
p4
F-0.00501402353516137
sS'sleep'
p5
F0.30825865295296606
sS'50am'
p6
F-0.026442675500288712
sS'hate'
p7
F0.6241622892423724
sS'consider'
p8
F0.37217779160179776
sS"rosen's"
p9
F-0.052885351000577424
sS'34%'
p10
F-0.008814225166762904
sS'pennypincher'
p11
F0.052885351000577424
sS'chinese'
p12
F0.41034987279172574
sS'tweet'
p13
F-1.298848601394716
sS'up"'
p14
F-0.8554441511727793
sS'up?'
p15
F-0.6107532990388477
sS'whatsoever'
p16
F0.052885351000577424
sS'under'
p17
F-0.18020313080844585
sS'lord'
p18
F-0.10403198011487805
sS'sorry'
p19
F-0.03685906673066122
sS'chill'
p20
F-0.07634416237985586
sS'ilysm'
p21
F-0.09610727042364117
sS'socialmedia'
p22
F-0.0133663148620747
sS'u\xe2\x80\xa6'
p23
F-0.013221337750144356
sS'today?'
p24
F-0.017968531401930304
sS'kotaksecgoes10k'
p25
F-0.22916985433583525
sS'13days'
p26
F-0.008814225166762904
sS'smack'
p27
F1.8509872850202285
sS'every'
p28
F-0.12671045009312334
sS'future:)'
p29
F-0.06169957616734033
sS'europiece'
p30
F0.07051380133410323
sS'month'
p31
F-0.2940589269656434
sS'screaming'
p32
F0.17715701187994068
sS'ready?!'
p33
F-0.27764809275303115
sS'tickets'
p34
F-0.25437679119519513
sS'200tweet*'
p35
F-0.008814225166762904
sS'school'
p36
F0.922327101464082
sS'bestfriend'
p37
F-0.12080481400024219
sS'supports'
p38
F-0.2481185277345318
sS'rdmas2014'
p39
F-0.06169957616734033
sS'vote!'
p40
F-0.0701963294922592
sS'nigger'
p41
F5.6064415951931785
sS'stars*'
p42
F-0.004407112583381452
sS'297'
p43
F-0.004771510148740991
sS'stillbuzzin'
p44
F-0.026442675500288712
sS'\xe2\x80\x9c18'
p45
F-0.20040342624712182
sS'9pm'
p46
F-0.012562444799278375
sS"jaani's"
p47
F-0.004407112583381452
sS'galau'
p48
F-0.06202963193363289
sS'me!'
p49
F-0.0081084872438871
sS'tired'
p50
F-0.7221606970501451
sS'created!'
p51
F0.035256900667051616
sS'cordially'
p52
F-0.052885351000577424
sS'direct'
p53
F-0.009543020297481983
sS'second'
p54
F-0.21169941222697242
sS'chen'
p55
F-0.008814225166762904
sS'me?'
p56
F0.08475422806538181
sS'me:'
p57
F-0.2481185277345317
sS'even'
p58
F-0.06997884639951568
sS'aim'
p59
F-0.07492091391748468
sS'hide'
p60
F0.8172858362313024
sS'me\r'
p61
F-0.025865417967617627
sS'saved'
p62
F-0.08571276115573002
sS'+'
p63
F-0.8172438706194929
sS'f*ck'
p64
F1.9787935499382936
sS'student;)'
p65
F-0.004407112583381452
sS'new'
p66
F-0.7074515767439513
sS'tips'
p67
F-0.016996723436507634
sS'carpet'
p68
F-0.31588348271516653
sS'ever'
p69
F1.2785664544595559
sS'told'
p70
F0.3093771784806426
sS'kicked'
p71
F-0.05014023535161371
sS'hero'
p72
F-0.015042070605484112
sS'phone?'
p73
F-0.05653100159675274
sS'join'
p74
F-0.028517949854868708
sS'"born'
p75
F1.031264344511259
sS'never'
p76
F-0.31170672405193456
sS'richest'
p77
F-0.18069161591863936
sS'here'
p78
F1.2217648518057358
sS'10%'
p79
F-0.011433805096418845
sS'me\xf0\x9f\x92\x99'
p80
F-0.01715070764462827
sS'met'
p81
F0.8828256427688664
sS'chinc'
p82
F0.5200392848390106
sS'ivy'
p83
F-0.09543020297481986
sS'stares'
p84
F0.07932802650086612
sS"aren't"
p85
F0.01682952212260193
sS'107'
p86
F-0.016473383727305755
sS'dork'
p87
F0.030849788083670164
sS'celebration'
p88
F-0.2481185277345318
sS'digits'
p89
F-0.03340057104118694
sS'0\\\xe2\x80\x9c@person'
p90
F-0.02203556291690726
sS'cunt!!!'
p91
F0.04847823841719597
sS'kids'
p92
F0.7608157056183045
sS"(':"
p93
F-0.041612792045951204
sS'roflmao'
p94
F-0.08814225166762901
sS'\xe2\x80\x94pamela'
p95
F-0.05024977919711355
sS'changed'
p96
F-0.6300032464515838
sS'credit'
p97
F-0.05014023535161371
sS"i'd"
p98
F0.09652226683919901
sS'only!:'
p99
F-0.057292463583958876
sS'smoke'
p100
F-0.09642685630019628
sS'military'
p101
F0.2807853179690368
sS"i'm"
p102
F-0.6056619965430008
sS'spotty'
p103
F5.200098129919622
sS'28"@person:'
p104
F-0.38341879475418583
sS'missing'
p105
F-0.32343356523474576
sS'campaign'
p106
F0.03430141528925654
sS'sweetest'
p107
F-0.07157265223111486
sS'stink'
p108
F0.9447590094507176
sS'feelings'
p109
F0.005201599005743901
sS'brought'
p110
F-0.026785237861165642
sS'\xd9\x85\xd8\xa7\xd9\x84\xd9\x83'
p111
F-0.08699461487304284
sS'moral'
p112
F-0.017628450333525808
sS'counts'
p113
F-0.1366204900848249
sS'total'
p114
F4.397842189267845
sS'bt'
p115
F-0.026785237861165642
sS'bra'
p116
F-0.12792533235377115
sS'053'
p117
F-0.008814225166762904
sS'calum!'
p118
F-0.07521035302742056
sS'would'
p119
F-1.0470263348602378
sS'wankers'
p120
F0.035256900667051616
sS'insecurity'
p121
F-0.004407112583381452
sS'achieve'
p122
F-0.005905233729331358
sS'arms'
p123
F0.2288703562527318
sS'tenders'
p124
F-0.09254936425101046
sS'bynr'
p125
F-0.06610668875072179
sS'call'
p126
F-0.0671307975545563
sS'right!'
p127
F-0.18131738565215783
sS'passport'
p128
F-0.24679830466936103
sS'military!'
p129
F0.4671539338384333
sS'type'
p130
F-1.4071786558914843
sS'tell'
p131
F-1.3568460333040187
sS'fractions'
p132
F-0.004407112583381452
sS're:'
p133
F-0.004407112583381452
sS'employees!'
p134
F-0.004407112583381452
sS'posting'
p135
F0.15268832475971184
sS'lungs'
p136
F0.14314530446222984
sS'evening'
p137
F0.173695803551993
sS'brings'
p138
F-0.09883038110913414
sS'haha'
p139
F1.7242546172076298
sS'award'
p140
F0.010714095144466257
sS'it'
p141
F-0.2890028338976392
sS'glass'
p142
F-0.010403198011487803
sS'smile'
p143
F-0.30640493144847536
sS'hole'
p144
F2.2713526614281183
sS'hold'
p145
F-0.07138466281832494
sS'\xc2\xa31'
p146
F-0.010403198011487803
sS'must'
p147
F0.6893923991144726
sS'me'
p148
F-0.17780210395864285
sS'wanker?'
p149
F1.1785630067390223
sS'mc'
p150
F-0.005201599005743901
sS'shame'
p151
F0.09883038110913414
sS'work'
p152
F-0.5327123084066379
sS'mi'
p153
F-0.1044340224035401
sS'worm'
p154
F0.017628450333525808
sS'worth'
p155
F-0.03366582163637084
sS'movies'
p156
F-0.05819719042713966
sS'daft'
p157
F2.4812043844437666
sS'install'
p158
F-0.21154140400230947
sS'experts'
p159
F-0.00501402353516137
sS'wanker!'
p160
F2.1321049337487827
sS'root'
p161
F-0.004771510148740991
sS'\xf0\x9f\x92\x93'
p162
F-0.0969564768343919
sS'cocokroach'
p163
F0.004407112583381452
sS'much!!'
p164
F-0.11780665485821357
sS'give'
p165
F-0.06042835766642901
sS'yuu'
p166
F0.057292463583958876
sS'household'
p167
F-0.004771510148740991
sS'fuck!!!'
p168
F-0.004407112583381452
sS'micky'
p169
F0.11458492716791768
sS'show!'
p170
F-0.23062737218228055
sS'involve'
p171
F-0.004407112583381452
sS'athiests'
p172
F0.4803752715885776
sS'doright\r'
p173
F-0.004407112583381452
sS'title?"'
p174
F-0.004407112583381452
sS'want'
p175
F-1.313397215691166
sS"55'"
p176
F-0.008814225166762904
sS'times'
p177
F-0.23964588771397546
sS'cocksucker'
p178
F0.017628450333525808
sS'absolute'
p179
F3.733966978189359
sS'hoe'
p180
F-0.26166545254180434
sS'end'
p181
F0.13693997520722725
sS'thing'
p182
F0.6836956208310491
sS'mschat'
p183
F-0.004771510148740991
sS'song'
p184
F-0.8049076954764528
sS'feature'
p185
F-0.02362093491732543
sS'how'
p186
F-0.9358578408121204
sS'hot'
p187
F-0.018843667198917582
sS'do?\xc2\xbb'
p188
F-0.035256900667051616
sS'answer'
p189
F-0.012137154572271377
sS'win!'
p190
F-0.2815190987757188
sS"doesn't"
p191
F-1.6975219874834806
sS'pizza'
p192
F-0.005491127909101918
sS'briefcase'
p193
F0.1762845033352579
sS'beauty'
p194
F-0.8374636654867221
sS'mess'
p195
F-0.019086040594963966
sS'after'
p196
F0.4752924914632085
sS'satyamevjayate'
p197
F-0.19832006625216514
sS'subtweeting'
p198
F0.04407112583381452
sS'wrong'
p199
F-0.386559688745798
sS'jumping'
p200
F0.2657432473635526
sS'laugh*'
p201
F-0.11458492716791768
sS'law'
p202
F0.8017046747288797
sS'food?'
p203
F-0.021964511636407672
sS'shirt'
p204
F-0.03843789536371342
sS'purchase'
p205
F-0.16223134505719383
sS'square"@person:'
p206
F-0.19832006625216514
sS'third'
p207
F-0.1065869734431456
sS"68'"
p208
F-0.014314530446222974
sS'\xe2\x80\x9c@person'
p209
F-0.7889325516529023
sS'it!\r'
p210
F-0.005201599005743901
sS'18th'
p211
F-0.012427802124720404
sS'green'
p212
F-0.0988513931824595
sS'1001'
p213
F-0.009543020297481983
sS'fan'
p214
F-0.10610580992868784
sS'1000'
p215
F-0.0072452095375088454
sS'order'
p216
F-0.9440877558180405
sS'683'
p217
F-0.013221337750144356
sS'wine'
p218
F-0.011629575668524645
sS'salon'
p219
F-0.07932802650086612
sS'walgreens'
p220
F-0.004407112583381452
sS'over'
p221
F1.6273826938261267
sS'london'
p222
F-0.012814302723152161
sS'sbs7e\xe2\x80\x9d'
p223
F-0.008814225166762904
sS'place!!'
p224
F-0.12780626491806202
sS'15"@person:'
p225
F-0.016071142716699384
sS'wum'
p226
F0.008814225166762904
sS'before'
p227
F-0.507138827868223
sS'ima'
p228
F-0.010403198011487803
sS'\xf0\x9f\x98\xaa\xe2\x80\x9c@person:'
p229
F-0.02203556291690726
sS'puig'
p230
F-0.08373513908424757
sS'fix'
p231
F-2.7038763429319648
sS'beaut'
p232
F-0.02862906089244595
sS'writing'
p233
F-0.03365904424520386
sS'better'
p234
F1.7265126041099514
sS'spoken'
p235
F-0.1850987285020208
sS'4eva'
p236
F-0.14791681461097084
sS'2morow'
p237
F-0.2512054172527425
sS'fie'
p238
F-0.004407112583381452
sS'weeks'
p239
F-0.1096953047493196
sS'easier'
p240
F0.5097567025629027
sS'then'
p241
F-0.07024398921438818
sS'them'
p242
F0.37178454340208433
sS'4get'
p243
F-0.07521035302742057
sS'unemployed'
p244
F0.045126211816452336
sS'safe'
p245
F-0.03843789536371343
sS"we'll"
p246
F-0.722845830139185
sS'band'
p247
F0.18025842286213195
sS'repulsive'
p248
F0.7139522385077942
sS'they'
p249
F-0.07297789365474226
sS'69smilejustin'
p250
F-0.03966401325043307
sS'problems!'
p251
F-0.008814225166762904
sS'one'
p252
F-0.14019722565836348
sS'keeponsmiling'
p253
F-0.02203556291690726
sS'crock'
p254
F0.08373513908424757
sS'oxygen'
p255
F0.004771510148740991
sS'l'
p256
F-0.10433143027293644
sS'423th'
p257
F-0.21154140400230947
sS'filling'
p258
F0.16747027816849502
sS'each'
p259
F0.1817954368364025
sS'$50'
p260
F-1.3932809634323713
sS'americans'
p261
F-0.09883038110913414
sS'went'
p262
F-0.06909344639603114
sS'meal'
p263
F-0.3381039353733538
sS'mean'
p264
F-1.259666867490469
sS'candy'
p265
F-0.026442675500288712
sS'signing'
p266
F-0.005357047572233128
sS'fruitcake'
p267
F0.12780626491806202
sS'kneels'
p268
F-0.008814225166762904
sS"hasn't"
p269
F0.2557152002932298
sS'knockout'
p270
F-0.06610668875072179
sS'1dbestfans2014\r'
p271
F-0.2757712944338754
sS'extortionists'
p272
F-0.004407112583381452
sS'celebrating'
p273
F0.5487236671052147
sS'!!!!!'
p274
F-0.005357047572233128
sS'aids'
p275
F0.004407112583381452
sS'\xf0\x9f\x8c\x9e\xf0\x9f\x92\x99\xf0\x9f\x8c\x9d\xf0\x9f\x92\x9d\xf0\x9f\x8c\x9a\xf0\x9f\x92\x9e\xf0\x9f\x8c\x9d\xf0\x9f\x92\x96'
p276
F-0.6027484030489391
sS'rt'
p277
F-1.7298400812663546
sS'day?'
p278
F-0.10290424586776958
sS'namme'
p279
F-0.07051380133410323
sS'sluts'
p280
F1.806916159186413
sS'god'
p281
F0.2162210134850964
sS'stinkburger'
p282
F1.4763827154327962
sS'32'
p283
F-0.05570998753608641
sS'rt@person:'
p284
F-0.7630298300447185
sS'daniel'
p285
F1.2245215237297253
sS'tweetfleet'
p286
F-0.004407112583381452
sS'got'
p287
F1.3861964660685937
sS'day!'
p288
F-0.18641703187080605
sS"24'"
p289
F-0.009543020297481983
sS'turning'
p290
F-0.18429533365330603
sS'tcot'
p291
F-0.010982255818203836
sS'3points'
p292
F-0.004407112583381452
sS'(heart'
p293
F-0.5552961855060622
sS'given'
p294
F-0.2243936283013592
sS'free'
p295
F-0.19753524200871966
sS'v\xc3\xada'
p296
F-0.05197352829803023
sS'but(:'
p297
F-0.07932802650086612
sS'masterpiece'
p298
F-0.2672045683294958
sS'struggle'
p299
F-0.030849788083670164
sS'243'
p300
F-0.004771510148740991
sS'aaptards'
p301
F-0.19832006625216514
sS'wanted'
p302
F-0.3459536215761531
sS'dahil'
p303
F-0.004407112583381452
sS'sickkkkkk'
p304
F0.8065016027588046
sS'"4'
p305
F-0.2236687572469879
sS'saggy'
p306
F4.623529699463901
sS'slut?'
p307
F1.0929639206786008
sS'22\xe2\x80\x9d'
p308
F-0.02203556291690726
sS'7yearsofkidrauhl'
p309
F-0.00501402353516137
sS'starts'
p310
F-0.005989510467310102
sS'messages'
p311
F-0.02507011767580685
sS'days'
p312
F-0.3651548305038594
sS'priorities'
p313
F-0.004407112583381452
sS'lousy'
p314
F0.03817208118992793
sS'+1'
p315
F-1.8465003660796262
sS'iso'
p316
F-0.10577070200115479
sS'cunt+liar'
p317
F3.7328243581240654
sS'slut!'
p318
F4.400552758859277
sS'fuckin'
p319
F0.5522405330383473
sS'cleaning'
p320
F-0.06680114208237388
sS'nah?'
p321
F0.2576615480320138
sS'teh'
p322
F-0.08814225166762901
sS'already'
p323
F-0.014564737068329866
sS'murnaghan'
p324
F-0.004407112583381452
sS'hearsay'
p325
F-0.16747027816849513
sS'unfollowed'
p326
F-0.057664362254184726
sS'puck'
p327
F0.12780626491806202
sS"ma'am"
p328
F-0.030849788083670164
sS'madrassa'
p329
F0.03966401325043307
sS'fantasy'
p330
F-0.09518296971579925
sS'another'
p331
F-0.16017878403940194
sS'force'
p332
F0.30585543564484374
sS'thick'
p333
F1.9164036402765634
sS'hood'
p334
F0.015117021562507592
sS'retweet!!'
p335
F-0.026442675500288712
sS'top'
p336
F1.5511444977771363
sS'\xc3\xa0'
p337
F-0.11017781458453624
sS'"@person:'
p338
F-3.127749204037049
sS'twisted'
p339
F0.07932802650086612
sS'tgifbydavidyoung"'
p340
F-0.009543020297481983
sS'needed'
p341
F-0.3075031629097077
sS'twenties'
p342
F-0.015042070605484112
sS'master'
p343
F-0.47737290237257834
sS'too'
p344
F2.2863150323206445
sS'(sorry):'
p345
F-0.06610668875072179
sS'phones'
p346
F-0.20026305044247775
sS'hollywood'
p347
F-0.8159282354347106
sS'legs'
p348
F-0.28392352132835585
sS'dogs'
p349
F-0.43622004755904
sS'listen'
p350
F0.22547484609846183
sS'curtains'
p351
F0.7492091391748458
sS'fanatical'
p352
F0.12780626491806202
sS'1more'
p353
F-0.014314530446222974
sS'years\xe2\x80\x9d'
p354
F-0.004407112583381452
sS'tool'
p355
F0.10020171312356085
sS'2am'
p356
F-0.2263224072166544
sS'took'
p357
F0.20505873505788663
sS'5\xe2\x83\xa3\xf0\x9f\x86\x985\xe2\x83\xa3\xf0\x9f\x86\x985\xe2\x83\xa3\xf0\x9f\x86\x985\xe2\x83\xa3\xf0\x9f\x86\x98'
p358
F-0.047715101487409914
sS'$25000'
p359
F-0.004407112583381452
sS'evil'
p360
F0.35786326115557476
sS'hoo!'
p361
F0.017628450333525808
sS'lmfaao'
p362
F-0.004407112583381452
sS'to?'
p363
F-0.18950584108540225
sS'"bae'
p364
F-0.04407112583381452
sS'nominate'
p365
F-0.06964161843903065
sS'legalize'
p366
F0.9122723047599592
sS'faridah"""'
p367
F-0.2247627417524538
sS'don\xe2\x80\x99t'
p368
F-0.02712699570145953
sS'classes'
p369
F0.4283079769099505
sS'silly'
p370
F3.514223207384979
sS'spoiled'
p371
F0.03817208118992793
sS'lingardium'
p372
F-0.023857550743704957
sS'\xc2\xab@person'
p373
F-0.041612792045951204
sS'tosser!'
p374
F1.5889128795307386
sS'feeling'
p375
F-0.011433805096418845
sS'bridge'
p376
F0.2557152002932298
sS'well?'
p377
F-0.004771510148740991
sS'nutrition'
p378
F-0.010714095144466257
sS'ran'
p379
F0.1884366719891758
sS'mind'
p380
F-0.03857714311048629
sS'now?"'
p381
F-0.13221337750144346
sS'ginger'
p382
F0.16747027816849502
sS'talking'
p383
F1.108973183268835
sS'advising'
p384
F0.017628450333525808
sS'trending'
p385
F-0.02005609414064548
sS'100'
p386
F-0.015307812012386186
sS'impeachobama'
p387
F0.6434384371736911
sS'seem'
p388
F-0.1560479701723171
sS'mins'
p389
F-0.46776175468227155
sS'forced'
p390
F0.16223134505719383
sS'youbornthisday'
p391
F-0.004407112583381452
sS'fitting'
p392
F-0.026442675500288712
sS'do?'
p393
F-0.00501402353516137
sS'boyfriend?'
p394
F0.013221337750144356
sS'woman\xe2\x80\x99s'
p395
F-0.008814225166762904
sS"girl's"
p396
F0.05014023535161371
sS'nobody'
p397
F-0.11433805096418848
sS'wrists'
p398
F0.4407112583381446
sS'shall'
p399
F0.0803557135834969
sS'doin'
p400
F0.06202963193363289
sS'plastictwat'
p401
F0.21594851658569092
sS'effective'
p402
F-0.008814225166762904
sS'regular'
p403
F-0.02005609414064548
sS'mouth'
p404
F-0.1402460176883495
sS'see!'
p405
F-0.21058898847677746
sS'entry'
p406
F-0.0058147878342623225
sS'glos'
p407
F-0.008814225166762904
sS'thriller'
p408
F-0.004407112583381452
sS'prostitute'
p409
F0.26883386758626826
sS'content\r'
p410
F-0.06610668875072179
sS'don'
p411
F-0.005357047572233128
sS'treats'
p412
F-0.2958336292219417
sS'radiodisneymusicawards!'
p413
F-0.06169957616734033
sS'3arf'
p414
F-0.4583397086716704
sS'dog'
p415
F0.15118448369082038
sS'spend'
p416
F-0.0058147878342623225
sS'take?"ny:\r'
p417
F-0.008814225166762904
sS'definitely'
p418
F0.37625179174041273
sS'aunt'
p419
F-0.004407112583381452
sS'1\xe2\x80\x9c@person:'
p420
F-0.035256900667051616
sS'karma!'
p421
F0.07932802650086612
sS'"ayy'
p422
F-0.12780626491806202
sS'entertaining'
p423
F-0.190532894336132
sS'boyfriends'
p424
F0.21317394688629124
sS'flog'
p425
F-0.07932802650086612
sS'came'
p426
F0.03430141528925654
sS'on?'
p427
F-0.031209594034463405
sS'\xe2\x99\xa1\xe2\x99\xa1\xe2\x99\xa1\r'
p428
F-0.013221337750144356
sS'bomb'
p429
F-0.4392779009231173
sS'inspire'
p430
F-0.08984265700965152
sS'22yr'
p431
F-0.02203556291690726
sS'queen'
p432
F-0.006068577286135688
sS'brief'
p433
F-0.20040342624712182
sS'pops'
p434
F-0.004771510148740991
sS'5000'
p435
F-0.009543020297481983
sS'd:'
p436
F-0.02507011767580685
sS'solutions'
p437
F-0.009543020297481983
sS'queer'
p438
F4.974609137097173
sS'd4'
p439
F-0.2732409801696497
sS'whitehouse'
p440
F0.013221337750144356
sS'enjoyed'
p441
F-0.02745563954550959
sS'flowers'
p442
F-0.2481185277345318
sS'bastard!'
p443
F0.03966401325043307
sS'006burakcan\xe2\x80\x9c@person:'
p444
F-0.5105515859152867
sS'cousins'
p445
F-0.33400571041186966
sS'explain'
p446
F0.3721464213927883
sS'slag?'
p447
F0.30849788083670127
sS'543'
p448
F-0.06169957616734033
sS'rich'
p449
F-0.16606847473922692
sS'folks'
p450
F-0.005491127909101918
sS'65%???'
p451
F-0.07932802650086612
sS'personality'
p452
F0.39109383574258744
sS'wearing'
p453
F0.027455639545509593
sS'do'
p454
F1.0043075863547206
sS'dm'
p455
F-0.2982399717761712
sS'dj'
p456
F-0.295261686466568
sS'di'
p457
F0.06169957616734033
sS'rt\xe2\x80\x9c@person:'
p458
F-0.729477443259728
sS'watch'
p459
F-2.221329921173722
sS'blinking'
p460
F2.014050450605345
sS'football!!'
p461
F0.017628450333525808
sS'wedding'
p462
F-0.07894081018085562
sS'$10'
p463
F-1.0301958003773382
sS'14'
p464
F-0.13824760755031396
sS'hall'
p465
F-0.010403198011487803
sS'trios'
p466
F-0.004407112583381452
sS'17'
p467
F-1.4491325459457784
sS'nicely'
p468
F-0.26001964241950537
sS'x\r'
p469
F-0.18551887080097063
sS'1@person'
p470
F-0.2481185277345318
sS'licking'
p471
F0.008814225166762904
sS'public'
p472
F0.010714095144466257
sS'bag'
p473
F1.5235503021674857
sS'loads!!'
p474
F-1.0443893345061914
sS'bae'
p475
F-0.4573522038567545
sS'them!'
p476
F-0.11443517812636586
sS'cousin"'
p477
F0.15865605300173213
sS'3:05'
p478
F-0.19832006625216514
sS'bam'
p479
F-0.026442675500288712
sS'them)'
p480
F-0.13360228416474784
sS'thumbs'
p481
F-0.004407112583381452
sS'questions'
p482
F-0.03366582163637084
sS'generally'
p483
F-0.013221337750144356
sS'nut'
p484
F0.15268832475971184
sS'observed'
p485
F-0.02203556291690726
sS'\xf0\x9f\x91\x80\xf0\x9f\x91\x80\xf0\x9f\x98\x82'
p486
F-0.3437547815037528
sS'protesting?'
p487
F-0.008814225166762904
sS'liomsa'
p488
F-0.18950584108540225
sS'customerservice\xe2\x80\x9d'
p489
F-0.04407112583381452
sS'corrupt'
p490
F0.017628450333525808
sS'miserable'
p491
F2.304919881108513
sS'best'
p492
F-1.5348280172810604
sS'02'
p493
F-0.16473383727305754
sS'03'
p494
F-0.006578400848404635
sS'said'
p495
F0.006631613120542992
sS'face!'
p496
F0.21560301201193882
sS'game!'
p497
F-0.2055749649416161
sS'away'
p498
F0.43083511453146667
sS'09'
p499
F-0.9225094887291213
sS'gentleman'
p500
F0.004771510148740991
sS'hardest'
p501
F-0.05515425888677508
sS'earth!'
p502
F0.08814225166762901
sS'finger'
p503
F1.779773285480374
sS'hopefully'
p504
F0.12577185606060726
sS'mum'
p505
F-0.02362093491732543
sS'\xec\x9d\xb4\xed\x8a\xb9\xec\x98\x81\xec\x9b\x90\xed\x9e\x88\xec\x82\xac\xeb\x9e\x91\xed\x95\xb4\xec\x9a\x94'
p506
F-0.21154140400230947
sS'$65'
p507
F-0.02203556291690726
sS'manolo'
p508
F-0.013221337750144356
sS'fag!'
p509
F1.4102760266820729
sS'we'
p510
F-0.9848160235653164
sS'men'
p511
F-0.2558777917186413
sS'omg'
p512
F0.14712595639061757
sS'rolled'
p513
F-0.04847823841719597
sS'preroll'
p514
F-0.06610668875072179
sS'latino'
p515
F-0.00501402353516137
sS'wi'
p516
F0.013221337750144356
sS'now"'
p517
F-0.08111567252859686
sS'harvard'
p518
F-0.017628450333525808
sS'wear'
p519
F0.09718734331956017
sS'wtf'
p520
F0.2801282248622617
sS'news'
p521
F0.007168805882627115
sS'do!!'
p522
F-0.04407112583381452
sS'faced'
p523
F0.17177436535467583
sS'received'
p524
F-0.010403198011487803
sS'passcode?'
p525
F-0.10974473342104285
sS'\xe2\x9d\xa4\xef\xb8\x8f'
p526
F-0.01616454536530803
sS'country'
p527
F-0.02362093491732543
sS'ill'
p528
F0.27329502821032897
sS'against'
p529
F-0.019036593943159857
sS'players'
p530
F-0.04573522038567539
sS'lot)'
p531
F-0.7285584698237052
sS'games'
p532
F-0.2845195976437941
sS'pot!'
p533
F-0.13221337750144346
sS'lookin'
p534
F0.14791681461097084
sS'at\xc3\xa1'
p535
F-0.18950584108540225
sS'sunshine'
p536
F-0.11810467458662711
sS'com'
p537
F-0.17299308676255407
sS'asked'
p538
F-0.620049541579794
sS'lol'
p539
F2.5011412586405033
sS'ily'
p540
F-0.047241869834650854
sS'elf'
p541
F-0.21154140400230947
sS'cuz'
p542
F2.2788180822772994
sS'lick'
p543
F0.37460456958742294
sS'65k?\r'
p544
F-0.004407112583381452
sS'blonde'
p545
F0.1754908237306479
sS'trust'
p546
F0.16954372313412208
sS'money?'
p547
F0.2767475886269778
sS'speak'
p548
F-0.02004947229311205
sS'nicer'
p549
F-0.052486611636150905
sS'\xf0\x9f\x90\x9d\xf0\x9f\x90\x9d\xf0\x9f\x90\x9d\xf0\x9f\x90\x9d\xf0\x9f\x90\x9d\xf0\x9f\x90\x9d\xf0\x9f\x90\x9d'
p550
F-0.004771510148740991
sS'"you'
p551
F-0.013221337750144356
sS'now!'
p552
F-0.006281222399639194
sS'been'
p553
F0.03399344687301527
sS'beer'
p554
F0.40085233736444076
sS'much'
p555
F-0.4225827956436704
sS'heru'
p556
F-0.07932802650086612
sS'interest'
p557
F-0.2910621190732008
sS'jungsu'
p558
F-0.21154140400230947
sS'fry'
p559
F-0.10020171312356085
sS'jackass'
p560
F0.7968421948397466
sS'idol'
p561
F-0.24967675227570743
sS'life'
p562
F-0.2790973104548472
sS'crossroads!'
p563
F-0.11458492716791775
sS'drugs'
p564
F-0.37217779160179776
sS'39'
p565
F-0.01939906347571322
sS'"69'
p566
F-0.052885351000577424
sS'time??'
p567
F-0.4866940351715817
sS'homebrew\xe2\x80\x9d'
p568
F-0.13221337750144346
sS'168'
p569
F-0.5365005182622674
sS'q7:'
p570
F-0.13221337750144346
sS'personally'
p571
F0.5314864947271061
sS'165'
p572
F-0.02862906089244595
sS'(and'
p573
F-0.17200897807641896
sS'spin'
p574
F-0.18950584108540225
sS'161'
p575
F-0.5415145417974288
sS'cunt'
p576
F6.084572749841555
sS'163'
p577
F-0.004407112583381452
sS'buffet?'
p578
F1.5513036293502827
sS'has'
p579
F-0.22304229813860707
sS'\xf0\x9f\x90\x9d'
p580
F-0.009543020297481983
sS'n'
p581
F-0.49780276031634757
sS'employ'
p582
F0.06610668875072179
sS'ugly'
p583
F3.974636029123037
sS'near'
p584
F0.08236691863652877
sS'angry?'
p585
F-0.005201599005743901
sS'dashboard'
p586
F-0.00501402353516137
sS'entertains'
p587
F-0.24679830466936103
sS'lol\xe2\x80\x9d\r'
p588
F-0.004771510148740991
sS'buried'
p589
F-0.004407112583381452
sS'stop'
p590
F3.0778155392658606
sS'<u+1f636>'
p591
F0.017628450333525808
sS'played'
p592
F0.2366745141592919
sS'thekiteteachesme'
p593
F-0.02203556291690726
sS'is'
p594
F1.17228475552057
sS'"i'
p595
F-0.04573522817177267
sS'tease'
p596
F-0.47156104642181473
sS'ii'
p597
F-0.08588718267733786
sS'throat'
p598
F0.4771510148740997
sS'cant'
p599
F-0.22547484609846183
sS'australia'
p600
F-0.18205596520103665
sS'im'
p601
F-0.4474141192599957
sS'in'
p602
F-0.635256668070534
sS'march'
p603
F-0.2728578465186246
sS'hbd'
p604
F1.8509872850202285
sS'id'
p605
F-0.3141510796219026
sS'disappear'
p606
F0.015604797017231704
sS'if'
p607
F-0.6491642825420985
sS'grown'
p608
F-0.6317669654303328
sS'"unh!'
p609
F-0.052885351000577424
sS'timeout?'
p610
F-0.004407112583381452
sS'3000th'
p611
F-0.08022437656258193
sS'perform'
p612
F-0.0624191880689268
sS'things'
p613
F-1.0205362974160086
sS'make'
p614
F-0.5044993236278521
sS'team!!!!'
p615
F-0.004407112583381452
sS'wanking'
p616
F0.008814225166762904
sS'forehead'
p617
F0.004771510148740991
sS'dad?'
p618
F-0.38341879475418583
sS'hahah'
p619
F0.2236687572469879
sS'big'
p620
F-0.5970046684830611
sS'liberal'
p621
F0.017628450333525808
sS'432:@person'
p622
F-0.004407112583381452
sS'entitled'
p623
F-0.16747027816849502
sS'bearded'
p624
F2.1903349539405985
sS'wishes???'
p625
F-0.004407112583381452
sS'chebs'
p626
F-0.030849788083670164
sS'welsh'
p627
F2.0278918132149
sS'ella'
p628
F-0.07051380133410323
sS'blue'
p629
F-0.07492091391748468
sS'tops'
p630
F-0.13036461191419565
sS'rain'
p631
F-0.3068943413388904
sS'hand'
p632
F0.060685772861356894
sS'pubs'
p633
F-0.08814225166762901
sS'"5'
p634
F-0.015604797017231704
sS'lol\xe2\x80\x9d'
p635
F-1.0980711542003394
sS'1:say'
p636
F-0.052885351000577424
sS'jealous'
p637
F1.1403909255490952
sS'kid'
p638
F-0.0058147878342623225
sS"someone's"
p639
F0.5068179470888663
sS'wlcbookbuzz'
p640
F-0.004407112583381452
sS"mother's"
p641
F-0.012137154572271377
sS'"\r'
p642
F-0.39540557272983756
sS'youre'
p643
F0.19073458405615532
sS'mentors'
p644
F-0.004771510148740991
sS'tho'
p645
F-0.20305700206037172
sS'do\xf0\x9f\x92\x95'
p646
F-0.0969564768343919
sS'mother'
p647
F0.038073187886319707
sS'the'
p648
F0.07117201498760825
sS'800'
p649
F-0.009543020297481983
sS'yours'
p650
F-0.017968531401930304
sS'left'
p651
F-0.12003120946968687
sS'slutty'
p652
F2.1090074857434953
sS"she'll"
p653
F0.5142765669343813
sS'just'
p654
F1.0715519797852395
sS'yea'
p655
F0.26927235396163096
sS'photo'
p656
F-0.24572711153774135
sS'dream?'
p657
F-0.026442675500288712
sS'gov?'
p658
F-0.017628450333525808
sS'thanks'
p659
F2.7096422615456692
sS'human'
p660
F-0.12744012300884947
sS'yes'
p661
F1.2524873599271569
sS'yer'
p662
F0.2099464465446037
sS'perfect!'
p663
F-0.09025242363290466
sS'yet'
p664
F-0.17767487680282526
sS'previous'
p665
F-0.00501402353516137
sS'much!!!'
p666
F-0.004407112583381452
sS'2day:'
p667
F-0.07492091391748468
sS'\xf0\x9f\x8c\x8f'
p668
F-0.00501402353516137
sS'"u'
p669
F-0.2247627417524538
sS'had'
p670
F-0.7246592041691211
sS'5s'
p671
F0.023857550743704957
sS'5m'
p672
F-0.008814225166762904
sS'shout'
p673
F-0.12902633627328153
sS'spread'
p674
F0.5814787834262324
sS'5k'
p675
F-0.060685772861356894
sS'\xf0\x9f\x94\x8c\xf0\x9f\x92\xb0\xf0\x9f\x92\xaf\xe2\x9c\x8a'
p676
F-0.02203556291690726
sS'save'
p677
F-0.1532024657242376
sS'hat'
p678
F0.01002804707032274
sS'gave'
p679
F-1.6922031542699814
sS'followback'
p680
F-0.08722181751393485
sS'thx'
p681
F-0.17685436619529274
sS'blakey'
p682
F0.02203556291690726
sS'awhile'
p683
F-0.2556125298361239
sS'arab'
p684
F4.542477661601348
sS'bastards'
p685
F0.4803752715885776
sS'newcastle'
p686
F-0.004771510148740991
sS'shadow'
p687
F-0.3129049934200827
sS'mine?'
p688
F0.08373513908424757
sS'korean'
p689
F0.1454347152515878
sS'bro'
p690
F-0.025865417967617613
sS'forres'
p691
F-0.12339915233468057
sS'58'
p692
F-0.0058147878342623225
sS'dubailights'
p693
F-0.008814225166762904
sS'55'
p694
F-0.005989510467310102
sS'nude'
p695
F-0.15745983490845283
sS'56'
p696
F-0.21846878230088482
sS'wackjob!'
p697
F0.30849788083670127
sS'50'
p698
F-1.2286403727821626
sS'remind'
p699
F-0.009543020297481983
sS'7ajidude:'
p700
F-0.06169957616734033
sS'laddy'
p701
F-0.03817208118992793
sS'night'
p702
F-0.11667708815633597
sS'5!'
p703
F-0.019086040594963966
sS'followerspam'
p704
F-0.05314710356398221
sS'right'
p705
F-0.1486452577011253
sS'old'
p706
F-0.534557415861214
sS'deal'
p707
F2.4759795327433705
sS'people'
p708
F-0.047950561716319506
sS'understand'
p709
F-0.011219681415067954
sS"'american"
p710
F-0.009543020297481983
sS'dead'
p711
F0.04573522038567539
sS'harmattan'
p712
F-0.2908694305031755
sS'wwe'
p713
F-0.009543020297481983
sS'born'
p714
F-0.006143177788443537
sS'~voice'
p715
F-0.004407112583381452
sS'+100'
p716
F-0.2915620299586806
sS'2:20'
p717
F-0.11458492716791768
sS'dear'
p718
F-0.15788162036171124
sS'205'
p719
F-0.023857550743704957
sS'creep'
p720
F-0.4863602829106539
sS'for'
p721
F-1.1932077665984344
sS'bottom'
p722
F0.0701963294922592
sS'tonight!'
p723
F-0.07687579072742685
sS'filming'
p724
F-0.5722037521684651
sS'dizzydaystop'
p725
F-0.01002804707032274
sS'heathrow'
p726
F-0.008814225166762904
sS'espera?'
p727
F-0.11017781458453624
sS'year\xe2\x99\xa5'
p728
F-0.013221337750144356
sS'christmas'
p729
F0.34044993036431936
sS'sunshine?'
p730
F-0.989352237261371
sS'knobhead'
p731
F1.1061852584287455
sS'pls'
p732
F-0.2767300042982676
sS'posh'
p733
F0.1762845033352579
sS'\xe2\x98\x85\xe2\x98\x86\xe2\x98\x85\xe2\x98\x86\xe2\x98\x85'
p734
F-0.010403198011487803
sS'marketing'
p735
F-0.1686106123652145
sS'b\xc3\xa6'
p736
F-0.07521035302742056
sS'5*'
p737
F-0.09102865929203534
sS'+10k'
p738
F-0.004407112583381452
sS'mad?"'
p739
F-0.04407112583381452
sS'discount'
p740
F-0.06202963193363289
sS'paid'
p741
F-0.05609840707533978
sS'starring'
p742
F-0.019086040594963966
sS'flaws'
p743
F-0.10497322327230185
sS'post'
p744
F-0.006466354491904407
sS'super'
p745
F-0.07047866497733687
sS'herpes'
p746
F-1.3045053246809155
sS'club?'
p747
F-0.5420748477559179
sS'tyres'
p748
F0.017628450333525808
sS'grenadian'
p749
F0.8285371656757118
sS'filipino'
p750
F-0.019086040594963966
sS'months'
p751
F-0.49422578622543467
sS'o'
p752
F0.5053315586803361
sS'alligator'
p753
F-0.16306316558511358
sS'dinner'
p754
F2.057964559128586
sS'sunshines'
p755
F-0.004771510148740991
sS'plus'
p756
F-0.04001831783746596
sS'afternoon'
p757
F-0.4287676911157073
sS'obv'
p758
F0.008814225166762904
sS'askmeiknow'
p759
F-0.052885351000577424
sS'match'
p760
F-0.011629575668524645
sS'ordinances?!'
p761
F-0.035256900667051616
sS'right?'
p762
F-0.10024736146556029
sS'whats'
p763
F-0.20633162772861344
sS'wishes???""'
p764
F-0.013221337750144356
sS'wasting'
p765
F0.38341879475418583
sS'selfie'
p766
F-0.026785237861165642
sS'son'
p767
F0.77141485040157
sS'down'
p768
F0.8767872506254409
sS"11:11's"
p769
F-0.035256900667051616
sS'for?'
p770
F-0.11017781458453624
sS'30mins'
p771
F-0.05491127909101918
sS'mamba'
p772
F-0.004407112583381452
sS'pickone'
p773
F-0.015042070605484112
sS'mass'
p774
F-0.06202963193363289
sS'5???'
p775
F-0.017628450333525808
sS'support'
p776
F-0.44567990028869153
sS'\xe2\x80\x9ccause'
p777
F-0.02203556291690726
sS'raped'
p778
F1.4980605136542449
sS'gig'
p779
F-0.02745563954550959
sS'stuck'
p780
F0.07282238608041461
sS'way'
p781
F-1.3093281745899485
sS'music'
p782
F-1.1870260710688876
sS'imho(honestly)'
p783
F0.017628450333525808
sS'wat'
p784
F-0.011219681415067954
sS'was'
p785
F-0.28662650945720314
sS'happy'
p786
F-0.4515342254476464
sS'so!'
p787
F-0.08814225166762901
sS'head'
p788
F0.07047866497733687
sS'paki'
p789
F5.383007596490846
sS'offering'
p790
F-0.01002804707032274
sS'what?'
p791
F0.2719760784782368
sS'gorgeous'
p792
F-0.5202381318870584
sS'kiss?'
p793
F-0.015042070605484112
sS'sickest'
p794
F-0.004407112583381452
sS'freelancer'
p795
F-0.013221337750144356
sS'hear'
p796
F0.4344052330174281
sS'thementalist'
p797
F-0.12780626491806202
sS'scales'
p798
F-0.06610668875072179
sS'true'
p799
F-0.329784079087125
sS'renee'
p800
F-0.004407112583381452
sS'221'
p801
F-0.004771510148740991
sS'naps:'
p802
F-0.004407112583381452
sS'congratulations'
p803
F0.16645116818380493
sS'prosecutions'
p804
F-0.13221337750144346
sS'porky'
p805
F0.14984182783496924
sS'until'
p806
F-0.2236582760444769
sS'7:11'
p807
F-0.21154140400230947
sS'guy"@person:'
p808
F-0.035256900667051616
sS'30k'
p809
F-0.24067312968774565
sS'adore'
p810
F-0.004407112583381452
sS'wellies'
p811
F0.026442675500288712
sS'(cont)'
p812
F-0.1372056611570261
sS'jft96'
p813
F-0.13221337750144346
sS'compa'
p814
F-0.06169957616734033
sS'delete'
p815
F0.270757270898714
sS'150'
p816
F-0.005491127909101918
sS'later'
p817
F-0.07424789756861462
sS'disgrace'
p818
F0.3053766495194238
sS'600mil'
p819
F-0.017628450333525808
sS'159'
p820
F-0.5314864947271061
sS'indy'
p821
F-0.5678097077001787
sS'proven'
p822
F0.14276932563664987
sS'sticky'
p823
F-0.4583397086716704
sS'are?"'
p824
F-0.009543020297481983
sS'pounding?'
p825
F-0.017628450333525808
sS'qwerty'
p826
F-0.008814225166762904
sS'exist'
p827
F-0.052627206787237084
sS'promised'
p828
F-0.10028047070322739
sS'tea'
p829
F-0.10529449423838876
sS'perez'
p830
F0.07051380133410323
sS'ship'
p831
F-0.03817208118992793
sS'annoying'
p832
F0.3201465426997278
sS'check'
p833
F-0.6743381662756611
sS'shit'
p834
F2.774462636319411
sS'muslim?'
p835
F0.35697611925389716
sS'bed"'
p836
F-0.019086040594963966
sS'tix'
p837
F-0.11531368609114027
sS'holy'
p838
F-0.09883038110913414
sS'no'
p839
F1.649754783433754
sS'na'
p840
F-0.006143177788443537
sS'bday\xe2\x80\x9d'
p841
F-0.04407112583381452
sS'song!'
p842
F-0.00501402353516137
sS'actor'
p843
F-0.09254936425101046
sS'til'
p844
F0.6143969959400468
sS'warms'
p845
F-0.004407112583381452
sS'role'
p846
F-0.26357413963689214
sS'test'
p847
F-0.12080481400024219
sS'smell'
p848
F0.12856914173359504
sS'picture'
p849
F-0.26927235396163096
sS'football'
p850
F0.19166433495392332
sS'queen?\xe2\x80\x9d\r'
p851
F-0.1366204900848249
sS"let's"
p852
F-0.2221944228000475
sS'save?\xe2\x80\x9d'
p853
F-0.0969564768343919
sS'journey'
p854
F-0.005201599005743901
sS'miranda'
p855
F-1.4123670040273257
sS'hahahahahah'
p856
F0.026442675500288712
sS'transfers'
p857
F0.052885351000577424
sS'aware'
p858
F-0.004771510148740991
sS'weekend'
p859
F-0.16500116185634275
sS'tottenham'
p860
F-0.015604797017231704
sS"'i"
p861
F-0.27568474730442694
sS'cheated'
p862
F-0.15268832475971184
sS'apology'
p863
F-0.004407112583381452
sS'phone'
p864
F-0.3512714882487289
sS'together'
p865
F-0.027854993768043203
sS'mr2kayatbolexyenegoa'
p866
F-0.07932802650086612
sS'bball'
p867
F-0.004407112583381452
sS'loyal'
p868
F0.11443517812636586
sS'time'
p869
F-0.5476284226978716
sS'serious'
p870
F-0.28004752336419797
sS'\xc2\xa38:'
p871
F-0.07492091391748468
sS'niceone'
p872
F0.07051380133410323
sS'songs'
p873
F-0.22632240721665436
sS'tribunals'
p874
F-0.004407112583381452
sS'\xf0\x9f\x8c\x9a\xf0\x9f\x92\x9e\xf0\x9f\x8c\x9d\xf0\x9f\x92\x96'
p875
F-0.29128954432165866
sS'newbie'
p876
F-0.10136358941777335
sS':)'
p877
F-1.3674059476304434
sS':*'
p878
F-0.054632106381154184
sS'dance'
p879
F-0.461314898033478
sS'tank)'
p880
F-0.03966401325043307
sS'best"'
p881
F-0.008814225166762904
sS'manager'
p882
F-0.20866286054587288
sS'skin'
p883
F-0.1454066825196797
sS'1st!'
p884
F-0.017628450333525808
sS'mill'
p885
F-0.07932802650086612
sS'muppet'
p886
F5.287956176465256
sS'rot'
p887
F0.004407112583381452
sS'freebiefriday'
p888
F-0.16747027816849502
sS':3'
p889
F-0.20872809414549917
sS'hurry'
p890
F-0.07292792919794172
sS'anel'
p891
F-0.3437547815037528
sS'zone'
p892
F-0.08111567252859686
sS'everything'
p893
F-0.03729488753030904
sS'oughtta'
p894
F-0.013221337750144356
sS'obamacare'
p895
F0.7821289455460362
sS'disgusting'
p896
F4.173140058769677
sS'0'
p897
F-0.9902674360013133
sS'finally'
p898
F-0.04151961427404067
sS'lmaoo'
p899
F-0.004407112583381452
sS"'mate'"
p900
F0.41426858283785595
sS'\xc2\xa33'
p901
F-0.7403949140080829
sS'shoot'
p902
F-0.20806396022975618
sS'jerk'
p903
F0.14102760266820635
sS'tubby'
p904
F1.5364262678945888
sS'innovation'
p905
F-0.09526644716806602
sS'brownie'
p906
F0.6346108497825527
sS'choice'
p907
F-0.13178706981844604
sS'sundaysbest'
p908
F-0.15268832475971184
sS'5mil'
p909
F-0.008814225166762904
sS'entries'
p910
F-0.21964511636407671
sS'cook'
p911
F0.00501402353516137
sS'word'
p912
F-0.11810467458662711
sS'petz@person'
p913
F-0.38341879475418583
sS'blast'
p914
F-0.052015990057439
sS'minute'
p915
F-0.2299143393073274
sS'cool'
p916
F0.05601456441918723
sS'000th'
p917
F-0.010403198011487803
sS'11:01'
p918
F-0.1366204900848249
sS'dio'
p919
F-0.20713429141892803
sS'\xe2\x80\x98why'
p920
F-0.008814225166762904
sS'level'
p921
F-0.3374939970506874
sS'did'
p922
F-0.5036437641584288
sS'die'
p923
F2.5396502553926905
sS'gus'
p924
F-0.1939129536687837
sS'team'
p925
F-0.36211491898456183
sS'guy'
p926
F-0.8223200269473292
sS'round'
p927
F0.005357047572233128
sS'yall'
p928
F0.8861198949724629
sS"it'll"
p929
F0.15745983490845283
sS'guzzling'
p930
F0.22035562916907236
sS'11:11\ri'
p931
F-0.21154140400230947
sS'says'
p932
F0.21169941222697242
sS'regret'
p933
F-0.010403198011487803
sS'collage'
p934
F-0.026442675500288712
sS'cost'
p935
F-0.00501402353516137
sS'pedo'
p936
F4.4071125833814095
sS'weekend\xf0\x9f\x91\xb8'
p937
F-0.008814225166762904
sS'chicken'
p938
F-0.10529449423838876
sS"112'"
p939
F-0.008814225166762904
sS"52'"
p940
F-0.013221337750144356
sS'stands'
p941
F0.08588718267733786
sS'deluded'
p942
F0.008814225166762904
sS'\xe2\x98\xba\xef\xb8\x8f'
p943
F-0.01002804707032274
sS'stopfoodwaste'
p944
F-0.017628450333525808
sS'current'
p945
F-0.07676803848130763
sS'526'
p946
F-0.06169957616734033
sS'goes'
p947
F-0.660898359039621
sS'528'
p948
F-0.06202963193363289
sS'filled'
p949
F-0.00501402353516137
sS'\xe2\x9c\x8c'
p950
F-0.26883386758626826
sS'funeral'
p951
F-0.01002804707032274
sS'muslim'
p952
F0.04407112583381452
sS'drink!'
p953
F-0.04294359133866892
sS'123:'
p954
F-0.07492091391748468
sS'water'
p955
F-0.09884030236383452
sS'here\r'
p956
F-0.014314530446222974
sS'cal!'
p957
F-0.023857550743704957
sS'alone'
p958
F-0.025124889598556775
sS'teacher'
p959
F-0.004407112583381452
sS'change'
p960
F-0.09867968671034578
sS'wait'
p961
F2.3495295927700885
sS'box'
p962
F-0.005716902548209423
sS'boy'
p963
F0.5153463616366937
sS'here?'
p964
F-0.004407112583381452
sS'my'
p965
F-0.016241325509085067
sS'teaching'
p966
F-0.09132720332802184
sS'guilty'
p967
F0.2820552053364126
sS'boi'
p968
F0.10136358941777335
sS'you!\xf0\x9f\x91\x8f\xf0\x9f\x91\x8f\xf0\x9f\x91\x8c'
p969
F-0.07051380133410323
sS'boo'
p970
F-0.1821396174559263
sS'weird'
p971
F1.6212439644773247
sS'433'
p972
F-0.12780626491806202
sS'mehn'
p973
F-0.035256900667051616
sS'love'
p974
F-0.45491524179653253
sS'"me'
p975
F-0.20963286635585365
sS'acion'
p976
F0.12780626491806202
sS'logical'
p977
F-0.04407112583381452
sS'bloody'
p978
F4.344565581081143
sS'fake'
p979
F2.955124002800296
sS'touchdown'
p980
F-0.02203556291690726
sS'ah&lt;3'
p981
F-0.004407112583381452
sS'stingy'
p982
F-0.021964511636407672
sS'sharad'
p983
F-0.017628450333525808
sS'working'
p984
F1.2524873599271569
sS'anda'
p985
F-0.013221337750144356
sS'10:10'
p986
F-0.02507011767580685
sS'??&gt;!'
p987
F-0.008814225166762904
sS'30%'
p988
F-0.12400990831595847
sS'end!!!'
p989
F0.030849788083670164
sS'live'
p990
F-0.7096683134015288
sS'jam'
p991
F-0.13178706981844604
sS'iphone'
p992
F-0.27948105814379476
sS'wondering'
p993
F-0.01715070764462827
sS'msh'
p994
F-0.4583397086716704
sS'negroes'
p995
F1.9372331203888233
sS'today'
p996
F-0.2014965190013597
sS'loving'
p997
F-1.181046745866272
sS'sharing'
p998
F-0.29129170973451307
sS'club'
p999
F-0.2791545551622417
sS'not!!!!letting'
p1000
F0.4803752715885776
sS'oow'
p1001
F-0.008814225166762904
sS'ignorant'
p1002
F0.3259115297854893
sS'ian1'
p1003
F-0.06610668875072179
sS'savior'
p1004
F-0.07932802650086612
sS'8"@person:'
p1005
F-0.023857550743704957
sS'cases'
p1006
F-0.22563105908226155
sS'effort'
p1007
F0.03817208118992793
sS'fly'
p1008
F-0.013046743332574547
sS'douche'
p1009
F0.004407112583381452
sS'8pm'
p1010
F-0.010403198011487803
sS'crush?'
p1011
F-0.026442675500288712
sS'niggas'
p1012
F1.4313604247073433
sS'car'
p1013
F-0.05920560763564172
sS'film!'
p1014
F-0.004407112583381452
sS'cute!'
p1015
F-0.009543020297481983
sS'soul'
p1016
F-0.12577185606060726
sS'wanker'
p1017
F5.917100234447937
sS'followerspam\r'
p1018
F-0.014314530446222974
sS'14yrs'
p1019
F-0.3149196698169058
sS'can'
p1020
F-1.0727591888071577
sS'9th'
p1021
F-0.02507011767580685
sS'following'
p1022
F-0.05305290496434394
sS'making'
p1023
F-0.04151961427404067
sS'http:'
p1024
F-0.008814225166762904
sS'claim'
p1025
F-0.09362878210339023
sS'crazy'
p1026
F0.06523371666287273
sS'performer'
p1027
F0.030849788083670164
sS'predict'
p1028
F-0.02507011767580685
sS'awesome'
p1029
F-0.1488767730533707
sS"didn't"
p1030
F0.04249180859126908
sS'fuck'
p1031
F2.341220864996305
sS'nascar'
p1032
F-0.07157265223111486
sS'pawar'
p1033
F-0.017628450333525808
sS'heard'
p1034
F-0.45459515634482145
sS'238'
p1035
F-0.004771510148740991
sS'"night'
p1036
F-0.017628450333525808
sS'allowed'
p1037
F-0.004771510148740991
sS'203k!'
p1038
F-0.004407112583381452
sS'spa'
p1039
F-0.08588718267733786
sS'mind@person:'
p1040
F-0.18950584108540225
sS'pink'
p1041
F-0.014314530446222974
sS'pervs'
p1042
F0.04407112583381452
sS's3'
p1043
F-0.008814225166762904
sS"12'"
p1044
F-0.013221337750144356
sS'write'
p1045
F0.013563497850729769
sS'till'
p1046
F-0.020025868302893764
sS'sunday'
p1047
F-0.037687334397835164
sS'$300'
p1048
F-0.14314530446222984
sS'unforgettable'
p1049
F-0.938982872456427
sS'economy'
p1050
F-0.01002804707032274
sS'??'
p1051
F-0.005716902548209423
sS'staying'
p1052
F0.28392352132835585
sS'2my'
p1053
F-0.14791681461097084
sS'143'
p1054
F-0.00501402353516137
sS'porkbun'
p1055
F-0.004407112583381452
sS'fascist'
p1056
F0.014314530446222974
sS'happy!!'
p1057
F-0.01463775363338727
sS'spot'
p1058
F-0.28579934150419817
sS'2@person'
p1059
F-0.14585585839588347
sS'diva'
p1060
F-0.004407112583381452
sS'birthday'
p1061
F-0.3530339388142171
sS'mad'
p1062
F-0.8326627423562662
sS'75of219'
p1063
F-0.026442675500288712
sS'date'
p1064
F-0.07753249308393324
sS'!!!'
p1065
F0.13814641781649734
sS'suck'
p1066
F0.7567111132893218
sS'truly'
p1067
F-0.016071142716699384
sS'guys'
p1068
F-1.024877767988574
sS'?!'
p1069
F0.3006051393706828
sS'man'
p1070
F0.1851702869303342
sS'neck'
p1071
F0.2571382834671901
sS'henrisoulisabadman""\r'
p1072
F-0.013221337750144356
sS'ss'
p1073
F-0.13221337750144346
sS'maybe'
p1074
F0.6977924377554007
sS'(@person'
p1075
F-0.12900673355731423
sS'nko?"@person:'
p1076
F-0.009543020297481983
sS'nosed'
p1077
F0.02203556291690726
sS'so'
p1078
F0.4583828300017415
sS'african'
p1079
F0.07634416237985586
sS'sc'
p1080
F-0.01002804707032274
sS'sa'
p1081
F-0.005491127909101918
sS'talk'
p1082
F0.9833779148607775
sS'cute'
p1083
F-0.3490042222912643
sS'shoes'
p1084
F-0.6919352478522689
sS'early?'
p1085
F-0.5156321722556292
sS'09?'
p1086
F0.008814225166762904
sS'food'
p1087
F-0.12455884282212196
sS'constituents'
p1088
F0.2556125298361239
sS'wishing'
p1089
F-0.03817208118992793
sS'years'
p1090
F-0.7665808796501092
sS'ended'
p1091
F-0.08793711359494874
sS'cold'
p1092
F-0.016473383727305755
sS'still'
p1093
F1.014756995042845
sS'gta'
p1094
F0.02203556291690726
sS'tweeti'
p1095
F0.16747027816849502
sS'police'
p1096
F-0.01002804707032274
sS'thank'
p1097
F-0.7710972743245865
sS"he's"
p1098
F0.2178431462935866
sS'cliff!'
p1099
F0.004407112583381452
sS'organisation'
p1100
F0.017628450333525808
sS'amazing'
p1101
F-0.5993991924581639
sS'civil'
p1102
F-0.004771510148740991
sS'gatorade'
p1103
F-0.16306316558511358
sS'tweets'
p1104
F-0.30890011689577324
sS'mail'
p1105
F0.07802398508615851
sS'main'
p1106
F-0.4178497106341847
sS'texas'
p1107
F0.6554014747237321
sS'happened'
p1108
F0.20756410617875726
sS'ramon'
p1109
F-0.008814225166762904
sS'non'
p1110
F0.05491127909101918
sS'victimology'
p1111
F0.23798407950259814
sS'insomnia'
p1112
F-0.026442675500288712
sS'nob'
p1113
F1.439024754591318
sS'moron'
p1114
F0.14984182783496924
sS'1week'
p1115
F-0.02203556291690726
sS'half'
p1116
F-0.019894839361628974
sS'not'
p1117
F-0.4863604297804401
sS'now'
p1118
F-0.32778518103589305
sS'bullshit'
p1119
F4.039179870862608
sS'wagon'
p1120
F0.2335769669192167
sS'name'
p1121
F-1.648434028839663
sS'servant'
p1122
F-0.08814225166762901
sS'january'
p1123
F-0.1232120941613619
sS'wanker!!!'
p1124
F2.6481881325512155
sS'drop'
p1125
F0.5550919705571488
sS'"""'
p1126
F-0.05515425888677508
sS'debating'
p1127
F0.04407112583381452
sS'22\xe2\x99\xa5"@person:'
p1128
F-0.03966401325043307
sS'75kg'
p1129
F-0.15865605300173213
sS'h'
p1130
F-0.052015990057439
sS'el'
p1131
F0.14276932563664987
sS'muzungu'
p1132
F-0.4759681590051962
sS'bday'
p1133
F-0.025628605446304322
sS'fired'
p1134
F-0.008814225166762904
sS'yeah'
p1135
F0.8102776895534579
sS'1nd'
p1136
F-0.005357047572233128
sS'replay'
p1137
F-0.3525690066705157
sS'year'
p1138
F-0.8001959607995445
sS'eu'
p1139
F-0.019086040594963966
sS'girl'
p1140
F-0.2731710691670639
sS'album'
p1141
F-0.18568516737520382
sS'living'
p1142
F-0.024572711153774147
sS'shown'
p1143
F-0.07157265223111486
sS'3rd'
p1144
F-0.34934488572214134
sS'space'
p1145
F0.8678417067017657
sS'looking'
p1146
F-0.1162957566852465
sS'attracted'
p1147
F0.013221337750144356
sS'seriously'
p1148
F1.382215002399795
sS"shouldn't"
p1149
F0.3533811175712963
sS'internet'
p1150
F-0.20272486701863662
sS'edmlife'
p1151
F-0.2732409801696497
sS'(?)'
p1152
F-0.017628450333525808
sS'theory'
p1153
F-0.5057800757665457
sS'million'
p1154
F-0.21224742768411534
sS'boobs'
p1155
F0.664273898956908
sS'quite'
p1156
F0.5145212293388489
sS'tunes'
p1157
F-0.20517493639586282
sS'gap;'
p1158
F-0.004407112583381452
sS'care'
p1159
F-0.32552394841751414
sS'language'
p1160
F-0.0897001190620651
sS'discussing'
p1161
F0.08022437656258193
sS'100%'
p1162
F-0.6504739569599698
sS'spam'
p1163
F-0.052015990057439
sS'\xf0\x9f\x92\x95'
p1164
F-0.6221045294189588
sS'luzer'
p1165
F1.0841496955118377
sS"51'"
p1166
F-0.017628450333525808
sS'yuh'
p1167
F4.9385130039468415
sS'amplifiers'
p1168
F-0.035256900667051616
sS'place'
p1169
F-0.46421291843800966
sS'massive'
p1170
F0.01002804707032274
sS'1006'
p1171
F-0.04407112583381452
sS'turd'
p1172
F4.45170653252581
sS'think'
p1173
F-0.9456449945201914
sS'falsecoat'
p1174
F0.004407112583381452
sS'first'
p1175
F-0.4865092346332254
sS'exotic'
p1176
F-0.12883077401600684
sS'627'
p1177
F-0.03966401325043307
sS'626'
p1178
F-0.026442675500288712
sS'death?!'
p1179
F-0.06202963193363289
sS'muchh'
p1180
F0.11458492716791768
sS'xoxo'
p1181
F-0.02277223539469518
sS'629'
p1182
F-0.030849788083670164
sS'75wiggins_'
p1183
F-0.004407112583381452
sS'xd'
p1184
F-0.06589353490922302
sS'yourself'
p1185
F-0.08406260839475732
sS'xx'
p1186
F-0.20874789332119278
sS'438:@person'
p1187
F-0.004407112583381452
sS"62'"
p1188
F-0.008814225166762904
sS'submit'
p1189
F-0.01715070764462827
sS'spanish'
p1190
F-0.07634416237985586
sS'vote'
p1191
F-0.011085929894609015
sS'impossible'
p1192
F-0.03365904424520386
sS'message'
p1193
F0.02243936283013591
sS'fight'
p1194
F-0.67815369980933
sS'open'
p1195
F0.2601667838898513
sS'tomorrow'
p1196
F-0.049625591017790224
sS'accommodate'
p1197
F-0.030849788083670164
sS'size'
p1198
F-0.005201599005743901
sS'sheep'
p1199
F-0.02862906089244595
sS'yid'
p1200
F0.013221337750144356
sS'little'
p1201
F1.6396009484180585
sS'sca2'
p1202
F-0.02203556291690726
sS'20"@person:'
p1203
F-0.005357047572233128
sS'virgin'
p1204
F-0.004771510148740991
sS'\xf0\x9f\x8e\x89\xf0\x9f\x8e\x8925'
p1205
F-0.008814225166762904
sS'response'
p1206
F-0.052015990057439
sS'anyone'
p1207
F-0.4397121054495
sS'returns'
p1208
F-0.004407112583381452
sS'2'
p1209
F-2.3848717918789792
sS'1d'
p1210
F-0.006213901062360202
sS'$1b'
p1211
F-0.004407112583381452
sS'typing'
p1212
F0.052486611636150905
sS'white'
p1213
F0.4846842828640954
sS'circa'
p1214
F-0.5244463974223921
sS'national'
p1215
F-0.010714095144466257
sS'friend'
p1216
F-0.2799153855980627
sS'gives'
p1217
F0.058927523294564396
sS'bitchhhh'
p1218
F1.5513036293502827
sS'much!'
p1219
F-0.10243519946466413
sS'eyes'
p1220
F-0.16171678261737277
sS'prissy'
p1221
F0.1454347152515878
sS'that'
p1222
F-0.3847330647392897
sS'season'
p1223
F-0.02062514523204284
sS'suit'
p1224
F-0.009543020297481983
sS'qna""\r'
p1225
F-0.010403198011487803
sS'sleep!!'
p1226
F-0.12780626491806202
sS'baldy'
p1227
F2.014050450605345
sS'x8'
p1228
F-0.03008414121096822
sS'eyed'
p1229
F-0.07157265223111486
sS'butt'
p1230
F0.026007995028719505
sS'8474'
p1231
F-0.004407112583381452
sS'copy'
p1232
F0.9604396280991857
sS'x6'
p1233
F-0.013221337750144356
sS'than'
p1234
F-1.045971328924926
sS'boyfriend'
p1235
F-0.23259151337049278
sS'$14'
p1236
F-0.8159282354347106
sS'10'
p1237
F-0.967983311470703
sS'13'
p1238
F-1.2237133086615735
sS'12'
p1239
F-0.9025959444223031
sS'15'
p1240
F-1.8129001841911319
sS'lmao'
p1241
F0.31093103440494446
sS'$12'
p1242
F-0.07932802650086612
sS'16'
p1243
F-1.467545829041851
sS'18'
p1244
F-0.17780999901838837
sS'gotta'
p1245
F-0.4100576871408695
sS'flaihypejerseyparty'
p1246
F-0.07932802650086612
sS'karate'
p1247
F-0.004407112583381452
sS'derby!'
p1248
F-0.004407112583381452
sS'r'
p1249
F0.7796050569274268
sS'cockbreath'
p1250
F0.004407112583381452
sS'i\xe2\x99\xa1u'
p1251
F-0.3129049934200827
sS'were'
p1252
F-0.6205713660404393
sS'1)'
p1253
F-0.776880470406948
sS'age\xe2\x80\x9d'
p1254
F-0.24067312968774565
sS'and'
p1255
F-0.11774336458414718
sS'bamm!!!'
p1256
F-0.20272717883554658
sS'illness'
p1257
F-0.12339915233468057
sS"taxpayers'"
p1258
F0.2556125298361239
sS'pro'
p1259
F0.30854123891436863
sS'alley'
p1260
F0.2732409801696497
sS'sad'
p1261
F0.22687659755247136
sS'winding'
p1262
F0.09254936425101046
sS'say'
p1263
F1.2029116221472125
sS'rent'
p1264
F0.11451624356978385
sS'slag'
p1265
F5.531302937628407
sS'saw'
p1266
F0.37496884835906374
sS'any'
p1267
F-0.052448524043662605
sS'\xa385'
p1268
F0.008814225166762904
sS'need!'
p1269
F-0.07932802650086612
sS'sanctimonious'
p1270
F0.004407112583381452
sS'edmdrops'
p1271
F-0.2732409801696497
sS'sending'
p1272
F-0.16546277666032516
sS'true"@person:'
p1273
F-0.004407112583381452
sS'clunt'
p1274
F0.35786326115557476
sS'ideal'
p1275
F-0.009543020297481983
sS'squad'
p1276
F-0.005491127909101918
sS'take'
p1277
F-0.5156860647378302
sS'congratulations!'
p1278
F-0.02507011767580685
sS'online'
p1279
F-0.09216181189018188
sS'funniest'
p1280
F-0.289280568900589
sS'slave?'
p1281
F-0.07932802650086612
sS'100!!!"@person:'
p1282
F-0.07492091391748468
sS'sure'
p1283
F-0.5345848624940246
sS'prick'
p1284
F6.188301248752626
sS'track'
p1285
F-0.012286355576887073
sS'knew'
p1286
F-0.006578400848404635
sS'20?'
p1287
F-0.004407112583381452
sS'falls'
p1288
F-0.004407112583381452
sS'bylanawestand'
p1289
F-0.008814225166762904
sS'nutella'
p1290
F-0.8373513908424747
sS'20%'
p1291
F-0.20933236203344352
sS'america'
p1292
F0.6114726371212031
sS'bellend'
p1293
F2.716023119122214
sS'mate?'
p1294
F0.014314530446222974
sS'forever'
p1295
F-0.02075980713702033
sS'700th'
p1296
F-0.004771510148740991
sS'fills'
p1297
F-0.12405926386726585
sS'??\xe2\x80\x9d\r'
p1298
F-0.004407112583381452
sS'average'
p1299
F-0.17685436619529274
sS'proud'
p1300
F-0.7977467791117795
sS'drive'
p1301
F-0.011219681415067954
sS'tsunamis"'
p1302
F-0.07932802650086612
sS'25%'
p1303
F-0.009543020297481983
sS'federal'
p1304
F-0.004771510148740991
sS'uncle'
p1305
F0.047715101487409914
sS'ronnie'
p1306
F-0.20713429141892803
sS'shot'
p1307
F-0.01715070764462827
sS'*cough*'
p1308
F0.4389789336841716
sS'rambling'
p1309
F0.008814225166762904
sS'show'
p1310
F-0.477687693524771
sS'german'
p1311
F0.16306316558511358
sS'cheap'
p1312
F0.08842718309764633
sS'\xf0\x9f\x92\x9c\r'
p1313
F-0.09254936425101046
sS'uranus'
p1314
F0.5464819603392993
sS'4th"@person:'
p1315
F-0.1542489404183507
sS'mister'
p1316
F-0.08111567252859686
sS'aint'
p1317
F-0.4070351483983622
sS'm\xc3\xa9nage'
p1318
F-0.004407112583381452
sS'slow'
p1319
F-2.3315209438500557
sS'daily'
p1320
F-0.3830324707300317
sS'dick'
p1321
F0.8617705111410078
sS'storms'
p1322
F-0.004407112583381452
sS'3'
p1323
F-1.4695793330689768
sS'only'
p1324
F-1.449318408338245
sS'going'
p1325
F-1.0649726090904876
sS'black'
p1326
F0.9030471349011995
sS'hockey'
p1327
F-0.03509816474612959
sS'slob'
p1328
F1.727588132685545
sS'nyquist'
p1329
F-0.1939129536687837
sS'alcoholism'
p1330
F0.013221337750144356
sS'nonce'
p1331
F0.9739718809272995
sS'get'
p1332
F0.5953082050146254
sS'ffs'
p1333
F0.052885351000577424
sS'samuel'
p1334
F-0.08814225166762901
sS'soon'
p1335
F0.27241462353983037
sS'2ne1'
p1336
F-0.08105354479639691
sS'cannot'
p1337
F-0.012562444799278387
sS"'til"
p1338
F-0.2507011767580684
sS'also2al'
p1339
F-0.4583397086716704
sS"letter'"
p1340
F-0.20272717883554658
sS'stupit'
p1341
F0.1454347152515878
sS'92%'
p1342
F-0.0969564768343919
sS'mon'
p1343
F-0.05014023535161371
sS'morning'
p1344
F-0.04324420269701913
sS'jokes'
p1345
F-0.20866286054587288
sS'stupid'
p1346
F3.5226206997951057
sS'worries'
p1347
F-0.013221337750144356
sS'tent'
p1348
F-0.013221337750144356
sS'where'
p1349
F-0.326690749301904
sS'tellemdwmt'
p1350
F-0.13221337750144346
sS'days!!\xe2\x9d\xa4\xef\xb8\x8f'
p1351
F-0.10577070200115479
sS'bieber?'
p1352
F-0.08414761061300968
sS'ujfmtop40!!!!'
p1353
F-0.22035562916907236
sS'concert'
p1354
F-0.29472896263249965
sS'job?'
p1355
F0.008814225166762904
sS'imposter'
p1356
F0.5200392848390106
sS'up'
p1357
F0.8757136052281285
sS'dickhead'
p1358
F0.5264724711919447
sS'college'
p1359
F0.4802232619335375
sS'devices'
p1360
F-0.01002804707032274
sS'happybirthdayvrindadawda'
p1361
F-0.02005609414064548
sS'hoes'
p1362
F-0.18050484726580926
sS'stalking'
p1363
F-0.00501402353516137
sS'wonder'
p1364
F-0.3993735050621049
sS'radiates'
p1365
F-0.1454347152515878
sS'ways'
p1366
F-1.35236043062119
sS'man:'
p1367
F-0.5552961855060622
sS'man?'
p1368
F-0.11458492716791768
sS'outside'
p1369
F0.005357047572233128
sS'digest'
p1370
F-0.004407112583381452
sS'between'
p1371
F-0.46606313878428307
sS'x24'
p1372
F-0.004407112583381452
sS'reading'
p1373
F0.09829084461509657
sS'across'
p1374
F-0.22563105908226155
sS'uniloritesmindplay'
p1375
F-0.13221337750144346
sS'patue'
p1376
F-0.004407112583381452
sS'notice'
p1377
F-0.14985292583903598
sS'koon'
p1378
F1.8509872850202285
sS'messed'
p1379
F-0.035256900667051616
sS'spider!!"'
p1380
F-0.017628450333525808
sS'marvin'
p1381
F-0.36579034442066005
sS'pained'
p1382
F-0.2247627417524538
sS'killing'
p1383
F-1.734723475976807e-18
sS'tuk'
p1384
F-0.013221337750144356
sS'awards'
p1385
F-0.10536144364885222
sS'magna'
p1386
F-0.004407112583381452
sS'sunday?'
p1387
F-0.06610668875072179
sS'457:@person'
p1388
F-0.004407112583381452
sS'cities'
p1389
F-0.06589353490922302
sS'come'
p1390
F-0.6783410924205936
sS'6yrs'
p1391
F-0.02203556291690726
sS'many'
p1392
F-0.4772519106302738
sS'hours'
p1393
F-0.26287174778655975
sS'according'
p1394
F-0.020806396022975605
sS's'
p1395
F-0.5483861806847588
sS'enjoy?'
p1396
F0.4407112583381446
sS"whatcha'"
p1397
F0.10136358941777335
sS'egypt528'
p1398
F-0.057292463583958876
sS"can't"
p1399
F0.6977627381472763
sS'6:35'
p1400
F-0.21154140400230947
sS'spoil'
p1401
F-0.008814225166762904
sS'cancer'
p1402
F1.3524157414934155
sS'want:'
p1403
F-0.1366204900848249
sS'jk'
p1404
F-0.005357047572233128
sS'pop'
p1405
F-0.23611850009138247
sS'pole'
p1406
F-0.03817208118992793
sS'152'
p1407
F-0.005357047572233128
sS'stretched'
p1408
F0.004407112583381452
sS'life?\xe2\x80\x9d'
p1409
F-0.01002804707032274
sS'madrids'
p1410
F0.052885351000577424
sS'faidha'
p1411
F-0.02203556291690726
sS'6?'
p1412
F-0.008814225166762904
sS'considering'
p1413
F0.1232120941613619
sS'poll:'
p1414
F-0.004407112583381452
sS'cares'
p1415
F0.07492091391748468
sS'raidi\xc3\xb3'
p1416
F-0.18950584108540225
sS'50%'
p1417
F-0.1570755398109514
sS"hunt'"
p1418
F-0.052885351000577424
sS'508'
p1419
F-0.06169957616734033
sS'509'
p1420
F-0.004407112583381452
sS'47pm'
p1421
F0.004407112583381452
sS'502'
p1422
F-0.06169957616734033
sS'wants'
p1423
F-0.4899353471718567
sS'37%off'
p1424
F-0.20713429141892803
sS'offered'
p1425
F0.008814225166762904
sS'400'
p1426
F-0.2548783512814513
sS'breakfast?'
p1427
F-0.008814225166762904
sS'wake'
p1428
F-0.2575301183852068
sS'drum'
p1429
F-0.035256900667051616
sS'irrelevant'
p1430
F0.004771510148740991
sS'spirit'
p1431
F-0.010403198011487803
sS'those'
p1432
F1.0502628382722488
sS'matter'
p1433
F-0.0803557135834969
sS'sound'
p1434
F0.5233309050836087
sS'tubby!'
p1435
F3.4463620402042787
sS'myself'
p1436
F-0.11982294385698773
sS'\xf0\x9f\x8e\x89\xf0\x9f\x8e\x8930'
p1437
F-0.026442675500288712
sS'these'
p1438
F0.7648955275514376
sS'nyame'
p1439
F-0.004407112583381452
sS'scum'
p1440
F2.6573580402578667
sS'cock'
p1441
F4.0839640350847475
sS'invited'
p1442
F-0.0572581217848919
sS'rings'
p1443
F-0.11458492716791768
sS'ive'
p1444
F-0.03817208118992793
sS'schnaaps'
p1445
F-0.004407112583381452
sS'expect?'
p1446
F0.004407112583381452
sS'purse'
p1447
F-0.008814225166762904
sS'die"'
p1448
F-0.18950584108540225
sS'good'
p1449
F0.009902743215371728
sS'\xf0\x9f\x8c\x9e\xf0\x9f\x8c\x9d\xf0\x9f\x8c\x9a'
p1450
F-0.29128954432165866
sS'ricketts'
p1451
F-0.057292463583958876
sS'somebody'
p1452
F0.14314530446222984
sS'2\xe2\x80\x9c@person:'
p1453
F-1.0401892124255365
sS'wingnut'
p1454
F0.14102760266820635
sS'bags'
p1455
F0.7490302568271224
sS'shit!!!'
p1456
F0.1454347152515878
sS'pat'
p1457
F-0.004407112583381452
sS'doctor'
p1458
F-0.005201599005743901
sS'pay'
p1459
F-0.0795793574465159
sS'$25'
p1460
F-0.048213428150098145
sS'same'
p1461
F-0.3850027109981328
sS'trip'
p1462
F-0.049711208498881616
sS'ceo'
p1463
F-0.00501402353516137
sS'fatima'
p1464
F0.008814225166762904
sS'pad'
p1465
F-0.008814225166762904
sS'urself'
p1466
F-0.2767475886269778
sS'buys'
p1467
F-0.07932802650086612
sS'struggling'
p1468
F-0.14791681461097084
sS'emojis'
p1469
F0.013221337750144356
sS'thee'
p1470
F-0.38172081189927975
sS'week'
p1471
F-0.2451171001363081
sS'bro?'
p1472
F-0.030849788083670164
sS'holla'
p1473
F-0.004407112583381452
sS'askbex'
p1474
F-0.5305630985858784
sS'reunions'
p1475
F-0.004407112583381452
sS'driver'
p1476
F-0.17047680019548653
sS'mutha'
p1477
F0.02203556291690726
sS'internet;'
p1478
F-0.06610668875072179
sS'running'
p1479
F-0.24136475165262916
sS'edchat'
p1480
F-0.005491127909101918
sS'vowed'
p1481
F-0.017628450333525808
sS'costa'
p1482
F0.057292463583958876
sS'modes'
p1483
F-0.052885351000577424
sS'29daysofhope'
p1484
F-0.04407112583381452
sS'no????????'
p1485
F-0.08814225166762901
sS'porcupineofalltheclubs'
p1486
F-0.20272717883554658
sS'mzungu'
p1487
F-0.4759681590051962
sS'"how'
p1488
F-0.005491127909101918
sS'foreigners!!'
p1489
F3.803338159458167
sS'without'
p1490
F-0.40585415990535206
sS'solve'
p1491
F-0.11785504658912878
sS'bot'
p1492
F0.026442675500288712
sS'pitbull'
p1493
F-0.0572581217848919
sS'11'
p1494
F-0.3403198884225101
sS'model'
p1495
F-0.31086945918000514
sS'amazed'
p1496
F-0.00501402353516137
sS'parody'
p1497
F-0.004771510148740991
sS'summer'
p1498
F-0.1253714666104252
sS'morons'
p1499
F0.06610668875072179
sS'livestock'
p1500
F0.11017781458453624
sS'being'
p1501
F-1.4919616528752226
sS'wifee'
p1502
F-0.004407112583381452
sS'rest'
p1503
F-0.2652815492929391
sS'pissing'
p1504
F0.030849788083670164
sS'kill'
p1505
F0.25124889598556766
sS'touch'
p1506
F-0.04573522038567539
sS'actually!'
p1507
F0.07051380133410323
sS'6%'
p1508
F-0.004771510148740991
sS'wher'
p1509
F0.09254936425101046
sS'death'
p1510
F0.19285371260039255
sS'qna"'
p1511
F-0.06358710454196306
sS"madrid's"
p1512
F0.008814225166762904
sS'thinking'
p1513
F-0.010982255818203836
sS"everyone's"
p1514
F0.004407112583381452
sS'lawd'
p1515
F-0.004407112583381452
sS'blog'
p1516
F-0.7058334426586917
sS'7:28'
p1517
F-0.08814225166762901
sS'lets'
p1518
F1.8070015211753867
sS'paki!!!'
p1519
F0.02203556291690726
sS'pile'
p1520
F0.03817208118992793
sS'4'
p1521
F-2.0425814234633757
sS'neonlightstour\r'
p1522
F-0.4583397086716704
sS'2taem'
p1523
F-0.052885351000577424
sS'via@person'
p1524
F-0.02325915133704929
sS'skies'
p1525
F-0.008814225166762904
sS'real'
p1526
F0.4910029941108537
sS'10$'
p1527
F-0.09543020297481986
sS'around'
p1528
F-0.006919935712340111
sS'(2'
p1529
F-0.052333090508360894
sS'(1'
p1530
F-0.7282292743362807
sS'gonna'
p1531
F0.4406499481213184
sS'nappy'
p1532
F0.11458492716791768
sS'mom'
p1533
F0.005716902548209423
sS'world'
p1534
F-1.9538360750482942
sS'accepted'
p1535
F-0.07932802650086612
sS'dare'
p1536
F-0.00501402353516137
sS'ukviewer'
p1537
F0.013221337750144356
sS'pounds'
p1538
F-0.00501402353516137
sS'nose'
p1539
F1.5342912017593855
sS'65'
p1540
F-0.26573551781991106
sS'frankieto500k'
p1541
F-0.017628450333525808
sS'competition'
p1542
F-0.477728128091868
sS'hacks'
p1543
F-0.31312183998178894
sS'hungry'
p1544
F-0.10403198011487805
sS'whaaaaat'
p1545
F0.27764809275303115
sS'away"@person:'
p1546
F-0.2247627417524538
sS'69'
p1547
F-4.272278409439531
sS'diving'
p1548
F0.008814225166762904
sS'thinks'
p1549
F0.327700737361866
sS'gross'
p1550
F0.20713429141892803
sS'onedirection'
p1551
F-0.2623066953797482
sS'nazi'
p1552
F0.10577070200115479
sS'favourite'
p1553
F-0.5570244734598401
sS'aussie'
p1554
F0.20994644654460382
sS'rt"@person:'
p1555
F-0.19030702847874523
sS'1420'
p1556
F-0.008814225166762904
sS'seconds'
p1557
F-0.1640198279517358
sS'sendaya'
p1558
F-0.004407112583381452
sS'gyppo'
p1559
F2.987173582551472
sS'think?'
p1560
F-0.010403198011487803
sS'seducing'
p1561
F0.572924635839588
sS'qna'
p1562
F-0.039736261534308856
sS'2m'
p1563
F-0.14314530446222984
sS';)'
p1564
F-0.043497307436521415
sS'fairy'
p1565
F-0.060168282421936455
sS'_'
p1566
F0.2571382834671901
sS'acc'
p1567
F-0.07282238608041461
sS'on'
p1568
F-0.4918520692677841
sS'ok'
p1569
F-0.10172623388047328
sS'origins'
p1570
F-0.4671539338384333
sS'oh'
p1571
F0.7058334426586903
sS'promisetowaitleeteuk'
p1572
F-0.21154140400230947
sS'of'
p1573
F0.2294387200292172
sS'od'
p1574
F-0.06610668875072179
sS'favorite'
p1575
F-0.15369641315056629
sS'dobox365promo"'
p1576
F-0.010403198011487803
sS'side'
p1577
F-0.028049203537669886
sS'stand'
p1578
F-0.5153173847087994
sS'decent'
p1579
F-0.3068943413388904
sS'or'
p1580
F-1.1650091554091928
sS'road'
p1581
F0.06495757102264492
sS'250k!!!'
p1582
F-0.008814225166762904
sS'ladies'
p1583
F-0.2675800790482743
sS'fundraising'
p1584
F-0.45253911349971976
sS'coupon'
p1585
F-0.10529449423838876
sS'image'
p1586
F0.17571609309126138
sS'blessed'
p1587
F-0.059052337293313564
sS'morning?'
p1588
F-0.045126211816452336
sS'snooze'
p1589
F-0.004407112583381452
sS'accounts'
p1590
F-0.09106980872796315
sS'inbox'
p1591
F-0.49762333746312654
sS'angel'
p1592
F-0.019735202545213902
sS'dreaming'
p1593
F-0.03340057104118694
sS'youu'
p1594
F0.015042070605484112
sS'your'
p1595
F0.617223352374922
sS'pamper'
p1596
F-0.06169957616734033
sS'buds'
p1597
F-0.004407112583381452
sS'grew'
p1598
F-0.005491127909101918
sS'fast'
p1599
F-0.019735202545213902
sS'her'
p1600
F1.2364372432832875
sS'hes'
p1601
F0.0701963294922592
sS'funerals'
p1602
F-0.004407112583381452
sS'there'
p1603
F0.033239449129657456
sS'hey'
p1604
F0.5412002000326431
sS'chinky'
p1605
F0.46274682125505184
sS'1:20'
p1606
F-0.04407112583381452
sS'myths'
p1607
F-0.1537515814548537
sS'start'
p1608
F1.115353630206254
sS'10k?"@person:'
p1609
F-0.02203556291690726
sS'low'
p1610
F0.16124956917806102
sS'lot'
p1611
F-0.09560618616701985
sS'2003"'
p1612
F-0.5244463974223921
sS'ashtonappreationtweet'
p1613
F-0.08588718267733786
sS'\xd8\xb2\xd9\x8a\xd9\x86'
p1614
F-0.08699461487304284
sS'complete'
p1615
F5.040542173378352
sS'bsc'
p1616
F-0.008814225166762904
sS'enough'
p1617
F-0.0147095293759892
sS'you!'
p1618
F-0.566888308594035
sS'you?'
p1619
F0.026534815194423828
sS"lady's"
p1620
F-0.008814225166762904
sS'"shitty'
p1621
F-0.5244463974223921
sS'land'
p1622
F-0.5785611378011785
sS"75'"
p1623
F-0.008814225166762904
sS'survived'
p1624
F0.2385755074370498
sS'services!'
p1625
F-0.004407112583381452
sS'trying'
p1626
F-0.2236656288457576
sS'with'
p1627
F-0.19363169580556194
sS'fraud'
p1628
F0.030849788083670164
sS'arranged'
p1629
F0.15865605300173213
sS'romantic'
p1630
F0.1508463711665732
sS"wasn't"
p1631
F0.09303660534819717
sS'spamming'
p1632
F-0.05076425051509294
sS'backyour'
p1633
F-0.035256900667051616
sS"102'"
p1634
F-0.004407112583381452
sS'dirty'
p1635
F1.1804019303552529
sS'world??'
p1636
F-0.008814225166762904
sS'agree'
p1637
F0.043929023272815344
sS'5secsperfectx'
p1638
F-0.12339915233468057
sS'gone'
p1639
F-0.5479632199681299
sS'boyfriend\xf0\x9f\x99\x88'
p1640
F-0.008814225166762904
sS'ad'
p1641
F-0.0803557135834969
sS'603'
p1642
F-0.030849788083670164
sS'af'
p1643
F3.1086945918000803
sS'ah'
p1644
F0.015604797017231704
sS'describe'
p1645
F-0.005716902548209423
sS'am'
p1646
F-1.564343940690314
sS'an'
p1647
F1.3490707688571808
sS'maxed'
p1648
F-0.004407112583381452
sS'ap'
p1649
F-0.008814225166762904
sS'\xf0\x9f\x98\x8d\xf0\x9f\x98\x98\xf0\x9f\x98\x8a\xe2\x98\xba\xef\xb8\x8f'
p1650
F-0.6027484030489391
sS'at'
p1651
F-0.67686996118527
sS'gayness'
p1652
F0.03817208118992793
sS'lifetime'
p1653
F-0.09362878210339023
sS'moves'
p1654
F-0.5678097077001787
sS'film'
p1655
F-0.3141510796219026
sS'fill'
p1656
F-0.020806396022975605
sS'selfish'
p1657
F0.04847823841719597
sS'bollox'
p1658
F0.16747027816849502
sS'45kg'
p1659
F-0.15865605300173213
sS'idiot'
p1660
F0.26297751721763335
sS'deserve'
p1661
F1.7632547205948796
sS'voteunionjuk'
p1662
F-0.01715070764462827
sS'stubborn'
p1663
F0.004407112583381452
sS'taemin'
p1664
F-0.10577070200115485
sS'5'
p1665
F-0.2892650695440369
sS'you'
p1666
F0.4193460502784815
sS'1449'
p1667
F-0.004407112583381452
sS"tonight's"
p1668
F-0.008814225166762904
sS'shestheone'
p1669
F-0.10024736146556029
sS'diaries'
p1670
F-0.01002804707032274
sS'important'
p1671
F-0.1831072209848518
sS'ashton'
p1672
F-0.05605242176310245
sS'brass'
p1673
F0.24067312968774565
sS'everything?'
p1674
F-0.014314530446222974
sS'wife'
p1675
F-0.30260643902661305
sS'fool!'
p1676
F0.03966401325043307
sS'wifi'
p1677
F-0.04407112583381452
sS'having'
p1678
F-0.7957935744651574
sS'go!!'
p1679
F-0.31588348271516653
sS'u'
p1680
F1.1034940179476642
sS'kuwait'
p1681
F-0.06169957616734033
sS':))'
p1682
F-0.03214228543339877
sS'tmltalk'
p1683
F-0.03509816474612959
sS'talentless'
p1684
F0.10577070200115479
sS'all'
p1685
F0.2578167619842438
sS'liar'
p1686
F2.3393035750416775
sS'forget'
p1687
F-1.3224410404461557
sS'vile'
p1688
F0.11899203975129913
sS'anois!'
p1689
F-0.18950584108540225
sS'depends'
p1690
F-0.017628450333525808
sS'lack'
p1691
F0.04011218828129096
sS'dollar'
p1692
F1.8309628500218549
sS'\xf0\x9f\x94\xa9\xf0\x9f\x94\xa9\xf0\x9f\x94\xa9'
p1693
F-0.004407112583381452
sS'remeber'
p1694
F0.052885351000577424
sS'coach'
p1695
F-0.010403198011487803
sS'tours'
p1696
F-0.06680114208237388
sS'follow'
p1697
F-0.4080225359278561
sS'liam'
p1698
F-0.21058898847677746
sS'reasoning'
p1699
F0.02203556291690726
sS'kcas2014'
p1700
F-0.008814225166762904
sS'hunting'
p1701
F0.07521035302742056
sS'tv'
p1702
F-1.8779672381214922
sS'lining'
p1703
F-0.004771510148740991
sS'acting'
p1704
F-0.004771510148740991
sS'laughing'
p1705
F-0.3040907682533198
sS'to'
p1706
F-0.028510045093556688
sS'lesbian?'
p1707
F0.013221337750144356
sS'set'
p1708
F-0.42401915830867215
sS'mandela'
p1709
F0.047715101487409914
sS'woman'
p1710
F-0.06829013297644274
sS'clubbed'
p1711
F-0.04847823841719597
sS'sitting'
p1712
F0.06731808849040774
sS'very'
p1713
F-0.336771864272496
sS'fav'
p1714
F-0.1841952237553298
sS'fat'
p1715
F5.011424731225984
sS'maybe"@person:'
p1716
F-0.004407112583381452
sS'sons'
p1717
F-0.004771510148740991
sS'worst'
p1718
F-0.17678256988369317
sS'decide'
p1719
F0.014314530446222974
sS'surprise'
p1720
F0.021428190288932513
sS'fab'
p1721
F-0.020806396022975605
sS'ticket'
p1722
F-0.3501611339412814
sS'difference'
p1723
F-0.46606313878428307
sS'faf'
p1724
F-0.004407112583381452
sS'fag'
p1725
F7.301655840953936
sS'strand'
p1726
F-0.017628450333525808
sS'heaven'
p1727
F0.047715101487409914
sS'3:45"@person:'
p1728
F-0.004407112583381452
sS'towipe'
p1729
F0.004407112583381452
sS'celebrity'
p1730
F-0.10020171312356085
sS'list'
p1731
F-0.07537466879567034
sS'random'
p1732
F-0.6267745659512763
sS'life?'
p1733
F-0.10028047070322739
sS'liars'
p1734
F0.5464819603392993
sS'small'
p1735
F-1.3903518454620063
sS'lrg'
p1736
F-0.09254936425101046
sS'20th'
p1737
F-0.43622004755904
sS"i'll"
p1738
F-0.296704027200218
sS'instagram'
p1739
F-0.0988513931824595
sS'ten'
p1740
F-0.04011218828129096
sS'colossal'
p1741
F0.12339915233468057
sS'194'
p1742
F-0.005357047572233128
sS'191'
p1743
F-0.00501402353516137
sS'1\xe2\x80\xb2'
p1744
F-0.03966401325043307
sS'past'
p1745
F-0.07986131124976598
sS'investment'
p1746
F-0.004771510148740991
sS'4am"@person:'
p1747
F-0.008814225166762904
sS'what'
p1748
F0.34464211362364305
sS'direction\r'
p1749
F-0.004407112583381452
sS'witnessed'
p1750
F-0.004407112583381452
sS'20%off'
p1751
F-0.14984182783496924
sS'fucks'
p1752
F0.7542318558328663
sS'emotions'
p1753
F-0.1454066825196797
sS'"69%"'
p1754
F-0.3040907682533198
sS'version'
p1755
F-0.10182167794427172
sS'abt'
p1756
F-0.07802398508615851
sS'row'
p1757
F-0.119790209346202
sS'ang'
p1758
F-0.017628450333525808
sS'guns'
p1759
F0.5391806468077327
sS'fucka'
p1760
F0.02203556291690726
sS'45th'
p1761
F-0.13221337750144346
sS'full'
p1762
F0.006578400848404635
sS'theresa'
p1763
F0.42308280800461884
sS'motherfucker'
p1764
F0.019086040594963966
sS'behaviour'
p1765
F-0.4759681590051962
sS'tracks'
p1766
F-0.2600799502871952
sS'ass&lt;3\r'
p1767
F-0.06169957616734033
sS'done???'
p1768
F-0.12780626491806202
sS'germanyludwigsburg'
p1769
F-0.10577070200115479
sS'buzzing'
p1770
F-0.030849788083670164
sS'strong'
p1771
F-0.005201599005743901
sS'legend'
p1772
F0.0
sS'arena'
p1773
F-0.16473383727305754
sS'great!'
p1774
F-0.0624191880689268
sS"reader's"
p1775
F-0.004407112583381452
sS'experience'
p1776
F-0.16534654442127797
sS'pics'
p1777
F-0.23561330971642716
sS'amount'
p1778
F-0.22179463665376734
sS'social'
p1779
F-0.007715428622097257
sS'visit'
p1780
F-0.1365802659528855
sS'inspires'
p1781
F-0.04407112583381452
sS'fuck!'
p1782
F0.08814225166762901
sS'makeover!'
p1783
F-0.04407112583381452
sS'via'
p1784
F-2.6215571013057257
sS'followed'
p1785
F-0.11141997507217277
sS'family'
p1786
F-0.28737576953460603
sS'2013!'
p1787
F-0.013221337750144356
sS'sabres!!!'
p1788
F-0.14984182783496924
sS'5000th'
p1789
F-0.12033656484387285
sS'2013:'
p1790
F-0.0701963294922592
sS'\xf0\x9f\x99\x8a'
p1791
F-0.005357047572233128
sS'you\xe2\x80\x99re'
p1792
F-0.9633046276466499
sS"lion's"
p1793
F-0.0969564768343919
sS'everything!!!'
p1794
F-0.004407112583381452
sS'1413'
p1795
F-0.004407112583381452
sS'eye'
p1796
F0.5249906620788475
sS'takes'
p1797
F0.5117555834372827
sS'two'
p1798
F0.13750096821361893
sS'shite'
p1799
F0.36740628145305676
sS'6'
p1800
F-1.726425374103189
sS'autographs'
p1801
F-0.004407112583381452
sS'more'
p1802
F-0.4096080676186922
sS'flat'
p1803
F-0.04161279204595121
sS'zoey!!!'
p1804
F-0.04407112583381452
sS'austin!!!'
p1805
F-0.005201599005743901
sS'company'
p1806
F-0.011433805096418845
sS'"10'
p1807
F-0.02243936283013591
sS'flag'
p1808
F0.8990509670098149
sS'nomad'
p1809
F-0.2247627417524538
sS'broke'
p1810
F-0.07676803848130763
sS':|"'
p1811
F-0.009543020297481983
sS'known'
p1812
F-0.01682952212260193
sS"who'll"
p1813
F-0.03509816474612959
sS'youuuuu'
p1814
F0.08022437656258193
sS'+2'
p1815
F-0.07187412560772123
sS'glad'
p1816
F0.5651723565368051
sS'dey'
p1817
F-0.05491127909101918
sS'\xe2\x80\x9cleave'
p1818
F-0.008814225166762904
sS'downsyndrome'
p1819
F0.16747027816849502
sS'hour'
p1820
F-0.43729715884025455
sS'shit!'
p1821
F1.4102760266820729
sS'noni'
p1822
F-0.2908694305031755
sS'dew'
p1823
F-0.004407112583381452
sS'offended'
p1824
F0.0572581217848919
sS'tgifdavidyoungaka"'
p1825
F-0.1754908237306479
sS'(2)'
p1826
F-0.00501402353516137
sS'dem'
p1827
F0.12405926386726585
sS'learn'
p1828
F-0.006068577286135688
sS'(2%'
p1829
F-0.008814225166762904
sS'85m'
p1830
F0.052885351000577424
sS'5secondzofzayn'
p1831
F-0.017628450333525808
sS'beautiful'
p1832
F-0.6202654093433946
sS'bashir'
p1833
F0.35697611925389716
sS'compare'
p1834
F-0.005491127909101918
sS'745'
p1835
F-0.04294359133866892
sS'tidi'
p1836
F-0.004407112583381452
sS'share'
p1837
F-0.01957011499886182
sS'accept'
p1838
F0.4723795047253587
sS'breathing'
p1839
F3.3626269011200334
sS'salty'
p1840
F0.008814225166762904
sS'sense'
p1841
F0.0
sS'cows'
p1842
F-0.035256900667051616
sS'station'
p1843
F-0.052015990057439
sS'643"@person:'
p1844
F-0.03966401325043307
sS'!'
p1845
F0.4713562374103826
sS'huge'
p1846
F-0.06423261423436742
sS'needs'
p1847
F2.754667013551261
sS'best\r'
p1848
F-0.02203556291690726
sS'*smirk*'
p1849
F0.08814225166762901
sS'rather'
p1850
F-0.025124889598556775
sS'comfort'
p1851
F-0.06169957616734033
sS'fame'
p1852
F-0.004771510148740991
sS'maps'
p1853
F-0.037499333005631894
sS'3wza'
p1854
F-0.4583397086716704
sS'31st'
p1855
F-0.02286761019283769
sS'fr'
p1856
F-0.010714095144466257
sS'ft'
p1857
F0.025865417967617627
sS'5sos'
p1858
F-0.6658314056189453
sS'different'
p1859
F-0.02325915133704929
sS'tries'
p1860
F-0.4914655453203227
sS'blood'
p1861
F-0.02745563954550959
sS'coming'
p1862
F-0.13391976078133924
sS'fk'
p1863
F0.03966401325043307
sS'pessi?'
p1864
F-0.02203556291690726
sS'a'
p1865
F0.6562954464193038
sS'come\xf0\x9f\x92\x8f'
p1866
F-0.008814225166762904
sS'short'
p1867
F0.0058147878342623225
sS'funny\r'
p1868
F-0.035256900667051616
sS'tweeting'
p1869
F-0.05314710356398221
sS'cigarets'
p1870
F-0.07932802650086612
sS'1473'
p1871
F-0.02203556291690726
sS'secs'
p1872
F-0.08975745132054366
sS'3wz'
p1873
F-0.9166794173433408
sS'\xf0\x9f\x98\xbf\xf0\x9f\x98\xbf\xf0\x9f\x92\x98\xf0\x9f\x92\x98'
p1874
F-0.24679830466936103
sS'1477'
p1875
F-0.008814225166762904
sS'1%'
p1876
F-0.005201599005743901
sS'dream'
p1877
F-0.038112690143143876
sS'playing'
p1878
F0.11183281442287879
sS"that's"
p1879
F0.466600679016346
sS'chicks'
p1880
F-0.004771510148740991
sS'pinit'
p1881
F-0.11532254130871149
sS'pls"@person:'
p1882
F-0.004771510148740991
sS'help'
p1883
F-0.8104612000455422
sS"don't"
p1884
F1.3434582644784225
sS'john'
p1885
F-0.011433805096418845
sS'sooo'
p1886
F-0.00501402353516137
sS'army!'
p1887
F-1.3045053246809155
sS'ok?'
p1888
F-0.21154140400230947
sS'paper'
p1889
F0.8621070817290005
sS'through'
p1890
F0.5968451808488691
sS'signs'
p1891
F-1.138451132690767
sS'hell'
p1892
F1.0097713273561177
sS'its'
p1893
F0.3821249608895409
sS'24'
p1894
F-0.5501335054068077
sS'25'
p1895
F-0.14957752108345865
sS'26'
p1896
F-0.07129487463717178
sS'27'
p1897
F-0.48917813122681436
sS'20'
p1898
F-0.7142931287947968
sS'21'
p1899
F-0.8968661934436666
sS'22'
p1900
F-0.4892576188190206
sS'23'
p1901
F-0.7128944127206478
sS'now!!!!'
p1902
F-0.09254936425101046
sS'28'
p1903
F-0.19460369385329043
sS'29'
p1904
F-1.1604145606393366
sS'2:'
p1905
F-0.07889150471976396
sS'actually'
p1906
F-0.121196957890935
sS'late'
p1907
F-0.9527666339232992
sS'2%'
p1908
F-0.010403198011487803
sS'followers'
p1909
F-0.9701890370491386
sS'bout'
p1910
F0.005357047572233128
sS'might'
p1911
F-0.5415968844353288
sS'2)'
p1912
F-1.5740828394640491
sS"haven't"
p1913
F-0.3879812695142647
sS"6's"
p1914
F-0.008814225166762904
sS'fool'
p1915
F0.00501402353516137
sS'someone'
p1916
F0.36651724003313896
sS'return'
p1917
F0.005491127909101918
sS'groping'
p1918
F0.9122723047599592
sS'yo'
p1919
F0.8761600497927876
sS'qna""'
p1920
F-0.03140611199819597
sS'ya'
p1921
F1.990734494140668
sS'casio'
p1922
F-0.9607505431771551
sS'moaning'
p1923
F0.013221337750144356
sS"you've"
p1924
F0.014637753633387266
sS'6issh'
p1925
F-0.08814225166762901
sS'foot'
p1926
F-0.043929023272815344
sS'yr'
p1927
F0.037283406374161214
sS'yu'
p1928
F1.9493504077311747
sS'desperately'
p1929
F0.17177436535467583
sS'erection'
p1930
F0.35786326115557476
sS'qna"\r'
p1931
F-0.014258974927434354
sS'always'
p1932
F-1.0477956315245123
sS'truths'
p1933
F-0.010403198011487803
sS'njgga'
p1934
F-0.07492091391748468
sS'turns'
p1935
F0.13221337750144346
sS'found'
p1936
F-0.08079797192729
sS'cuuuuuunttttt'
p1937
F1.6350387684345322
sS'marry'
p1938
F-0.5779911206868963
sS"isn't"
p1939
F-0.0248556042494408
sS'noilluminatibullshit'
p1940
F-0.06169957616734033
sS'everyone'
p1941
F-0.057961676300070764
sS'mental'
p1942
F-0.1456447721608293
sS'mums'
p1943
F0.2147179566933448
sS'hard'
p1944
F-0.4712019175374554
sS'reduce'
p1945
F-0.015604797017231704
sS'idea'
p1946
F0.05390559420579093
sS'gfk'
p1947
F-0.008814225166762904
sS'expect'
p1948
F-0.005357047572233128
sS'village!'
p1949
F-0.013221337750144356
sS'mumm'
p1950
F0.013221337750144356
sS'portland'
p1951
F-0.03966401325043307
sS'really'
p1952
F-0.3623837675015504
sS'leave'
p1953
F-0.08480383166173457
sS'missed'
p1954
F-0.012691062628773238
sS'4pm'
p1955
F-0.274556395455096
sS'since'
p1956
F-0.9452383507194592
sS'1+'
p1957
F-0.004771510148740991
sS'him?\xe2\x80\x9d'
p1958
F-0.11899203975129913
sS'"things'
p1959
F-0.5641104106728251
sS'7'
p1960
F-0.7074515767439513
sS'offer!'
p1961
F-0.09254936425101046
sS'salute'
p1962
F-0.005201599005743901
sS'ass'
p1963
F3.757911248113987
sS'soulless'
p1964
F0.004407112583381452
sS'pathetic'
p1965
F3.387772205606053
sS'timeline'
p1966
F0.8016137049884876
sS'friday'
p1967
F-0.33957902216353236
sS'story'
p1968
F0.11672037798042717
sS'pub'
p1969
F0.10923357912062195
sS'caravans'
p1970
F-0.06169957616734033
sS'reason'
p1971
F-0.09102865929203534
sS'shoplifting?'
p1972
F0.26883386758626826
sS'asf'
p1973
F1.6394458810179138
sS'fatass'
p1974
F-0.09254936425101046
sS"40'"
p1975
F-0.004407112583381452
sS'put'
p1976
F-0.034599678561700556
sS'\xe2\x80\x93belle'
p1977
F-0.03966401325043307
sS'homebrewer'
p1978
F-0.13221337750144346
sS'wall'
p1979
F-0.015042070605484112
sS'kol'
p1980
F-0.004407112583381452
sS'lol!'
p1981
F-0.03817208118992793
sS'trust?'
p1982
F-0.013221337750144356
sS'oppa'
p1983
F-0.2290324871395678
sS'caption'
p1984
F-0.009543020297481983
sS'w'
p1985
F-0.2611258951830038
sS'$250'
p1986
F-0.7594334548386102
sS'shave'
p1987
F0.28646231791979404
sS'major'
p1988
F0.00501402353516137
sS"bad'"
p1989
F-0.06169957616734033
sS'dont'
p1990
F0.9323721882577267
sS'rdmas'
p1991
F-0.09867771847046049
sS'feel'
p1992
F2.3404036406949134
sS'girls'
p1993
F0.8087606535941567
sS'number'
p1994
F-0.9031609087307847
sS'fancy'
p1995
F-0.00501402353516137
sS'10"@person:'
p1996
F-0.027316053190577092
sS'inducted!'
p1997
F-0.008814225166762904
sS'done'
p1998
F-0.4687767430397306
sS'mobile'
p1999
F-0.06267373597809721
sS'miss'
p2000
F-0.8476059528062657
sS'razor'
p2001
F-0.008814225166762904
sS'guess'
p2002
F1.3156801696809295
sS'"'
p2003
F-1.3086106020964936
sS'jew'
p2004
F0.08373513908424757
sS'5th'
p2005
F-1.9140409296036942
sS'estereopicnicsabeachocoramo'
p2006
F-0.21748653718260702
sS'least'
p2007
F0.035624668133870004
sS'player'
p2008
F-0.14999733202252755
sS'180'
p2009
F0.11249799901689565
sS'wonderful'
p2010
F-0.047241869834650854
sS'passed'
p2011
F-0.1607114271669938
sS'is!!!!i'
p2012
F0.4803752715885776
sS'kot'
p2013
F-0.052885351000577424
sS'store'
p2014
F-0.01682952212260193
sS'\xf0\x9f\x98\x98'
p2015
F-0.005989510467310102
sS'statement'
p2016
F-0.004407112583381452
sS'\xf0\x9f\x98\x9d'
p2017
F-0.05515425888677508
sS'behind'
p2018
F-0.005357047572233128
sS'tom'
p2019
F-0.02005609414064548
sS'2012:'
p2020
F-0.0701963294922592
sS'tfb'
p2021
F-0.052885351000577424
sS'booboo!'
p2022
F-0.07051380133410323
sS'blindly'
p2023
F0.0969564768343919
sS'believe'
p2024
F-0.4625388972645572
sS'$2'
p2025
F-0.0468143910516951
sS'$3'
p2026
F-0.005357047572233128
sS'$0'
p2027
F-0.00501402353516137
sS'obama'
p2028
F0.4061359063480716
sS'grocery'
p2029
F-0.013221337750144356
sS'b'
p2030
F-0.48439549986380814
sS'die!!!!!!!!!!!!!!'
p2031
F0.4803752715885776
sS'\xf0\x9f\x91\x8d'
p2032
F-0.020806396022975605
sS'me!!!!!!!'
p2033
F-0.004407112583381452
sS'marriage'
p2034
F0.21748653718260702
sS'head!'
p2035
F0.02203556291690726
sS'proudoflana'
p2036
F-0.008814225166762904
sS'sentenced'
p2037
F-0.06202963193363289
sS'outta'
p2038
F0.9803397057186608
sS'fights'
p2039
F-0.0969564768343919
sS'\r'
p2040
F-0.435423933152542
sS'caliosa'
p2041
F-0.023857550743704957
sS'juice'
p2042
F-0.3409536003909735
sS'contest'
p2043
F-0.028049203537669886
sS'huh?'
p2044
F0.6718791537116241
sS'ok!11!'
p2045
F-0.04407112583381452
sS'sell'
p2046
F-0.058147878342623215
sS'lie'
p2047
F0.47223700018276604
sS'nights'
p2048
F-0.08414761061300968
sS'facebookification'
p2049
F-0.035256900667051616
sS'lil'
p2050
F0.35197748259587
sS'self'
p2051
F-0.14863946625344493
sS'cave'
p2052
F0.02203556291690726
sS'lik'
p2053
F0.004407112583381452
sS'also'
p2054
F-0.006733164327274169
sS'costs'
p2055
F-0.01002804707032274
sS'lip'
p2056
F-0.2908694305031755
sS'useless'
p2057
F1.6253738610941633
sS'analogy'
p2058
F-0.1850987285020208
sS'reship'
p2059
F-0.004407112583381452
sS'finding'
p2060
F-0.08857850593997034
sS'felony'
p2061
F-0.004407112583381452
sS'gym'
p2062
F0.12577185606060726
sS'play'
p2063
F-0.014780120558347935
sS'towards'
p2064
F0.5916672584438837
sS'reckon'
p2065
F0.014314530446222974
sS'quote'
p2066
F-0.31685137010331615
sS'eater'
p2067
F0.11458492716791768
sS'rted'
p2068
F-0.017628450333525808
sS'77'
p2069
F-0.05989510467310103
sS'most'
p2070
F0.27260725328051977
sS'75'
p2071
F-0.23958393374929782
sS'hired'
p2072
F-0.01002804707032274
sS'charm'
p2073
F-0.03340057104118694
sS'punk'
p2074
F-0.14102760266820635
sS'position'
p2075
F-0.18205596520103665
sS'nothing'
p2076
F0.34307248222147674
sS'11:11'
p2077
F-0.5041310797726853
sS'11:15'
p2078
F-0.00501402353516137
sS'bestappever\r'
p2079
F-0.008814225166762904
sS'1046'
p2080
F-0.04407112583381452
sS'knob!'
p2081
F1.0665212451783115
sS'sometimes'
p2082
F0.4552027955155682
sS'henrisoulisabadman"\r'
p2083
F-0.00501402353516137
sS'km'
p2084
F-0.05716902548209424
sS"guilty's"
p2085
F-0.08373513908424757
sS'happyfriday'
p2086
F-0.2732409801696497
sS'clean'
p2087
F0.4012972013097772
sS'barrel'
p2088
F0.06169957616734033
sS'3v3'
p2089
F-0.005201599005743901
sS'lying'
p2090
F1.8865778409090987
sS'yeah!'
p2091
F-0.21154140400230947
sS'giggles'
p2092
F0.008814225166762904
sS'\xf0\x9f\x98\x84\xf0\x9f\x98\x8a'
p2093
F-0.5156321722556292
sS'welfare?'
p2094
F-0.16306316558511358
sS'666'
p2095
F-0.4057247224480246
sS'\xf0\x9f\x98\x8d\xf0\x9f\x98\x8d\xf0\x9f\x98\x8d\r\xe2\x9d\xa4\xf0\x9f\x92\x99\xe2\x9d\xa4\xf0\x9f\x92\x99'
p2096
F-0.21154140400230947
sS'that!'
p2097
F0.02286761019283769
sS'area'
p2098
F-0.3160658067617548
sS'stfu'
p2099
F5.0829710690106795
sS'653'
p2100
F-0.026442675500288712
sS'gain!'
p2101
F-0.5420748477559179
sS"66'"
p2102
F-0.004407112583381452
sS'decity'
p2103
F-0.07932802650086612
sS'fine'
p2104
F0.08322558409190242
sS'find'
p2105
F0.46750329192630397
sS'barking'
p2106
F2.014050450605345
sS'$5'
p2107
F-0.0058147878342623225
sS'keychain'
p2108
F-0.004407112583381452
sS'cried'
p2109
F0.019086040594963966
sS'writes'
p2110
F0.07051380133410323
sS'less'
p2111
F-0.08414761061300968
sS'grotesque'
p2112
F0.026442675500288712
sS'unhappy'
p2113
F-0.008814225166762904
sS'schoo'
p2114
F-0.12780626491806202
sS'idiots'
p2115
F0.017628450333525808
sS'bestnewvideolaidback'
p2116
F-0.1754908237306479
sS'condom'
p2117
F0.004407112583381452
sS'8'
p2118
F-0.14041114530430532
sS'out!!'
p2119
F-0.2958336292219418
sS'liars!'
p2120
F0.11458492716791768
sS'"using'
p2121
F-0.026442675500288712
sS'to:'
p2122
F-0.014314530446222974
sS'his'
p2123
F1.076640044099076
sS'rt!'
p2124
F-0.07282238608041461
sS'pleading'
p2125
F0.2820552053364126
sS'beyonc\xc3\xa9'
p2126
F-0.0969564768343919
sS'\xf0\x9f\x98\x81\xf0\x9f\x98\x8e'
p2127
F-0.2423911920859796
sS'luke'
p2128
F-0.224814149820286
sS'express'
p2129
F-0.11030851777355012
sS'\xf0\x9f\x98\xad\xf0\x9f\x98\xad\xf0\x9f\x98\xad\xf0\x9f\x98\xad\xf0\x9f\x98\xad\xf0\x9f\x98\xad\xf0\x9f\x98\xad\xf0\x9f\x98\xad\xf0\x9f\x98\xad\xf0\x9f\x98\xad\xf0\x9f\x99\x8c'
p2130
F-0.35697611925389716
sS'kind'
p2131
F-0.3414020966366761
sS'pants?\xe2\x80\x9d'
p2132
F-0.14984182783496924
sS'famous'
p2133
F0.07431973312672249
sS'courage'
p2134
F0.6775544411212217
sS'10:45'
p2135
F-0.03966401325043307
sS'him'
p2136
F0.4920525460407603
sS'target'
p2137
F-0.005357047572233128
sS'feeder'
p2138
F-0.14984182783496924
sS'whr@person:'
p2139
F-0.2247627417524538
sS'cry'
p2140
F-0.005989510467310102
sS'(via'
p2141
F-0.13466328654548335
sS'sacrifices'
p2142
F-0.052885351000577424
sS'double'
p2143
F-0.08722181751393485
sS'naughty'
p2144
F-0.060168282421936455
sS'x'
p2145
F-0.20068920755054112
sS'gospel'
p2146
F-0.03966401325043307
sS'river'
p2147
F-0.26001964241950537
sS'wrote'
p2148
F-0.3658817630854034
sS'\xf0\x9f\x91\x8b\xe2\x9c\x8c\xef\xb8\x8f'
p2149
F-0.0969564768343919
sS"'we're"
p2150
F-0.052885351000577424
sS'art'
p2151
F-0.13374012018803344
sS'queer?'
p2152
F1.727588132685545
sS'queer!'
p2153
F4.522649228715609
sS'see'
p2154
F0.38461122025907957
sS'dumb'
p2155
F2.641208977272756
sS'are'
p2156
F0.4713901230133729
sS'sea'
p2157
F0.004407112583381452
sS'seo'
p2158
F-0.13455017859309762
sS'close'
p2159
F0.04300224451910476
sS'retweet'
p2160
F-0.013658026595288546
sS'lee'
p2161
F-0.015042070605484112
sS'knees'
p2162
F0.40545435767109306
sS'*alhamdulillaho:)'
p2163
F-0.017628450333525808
sS'abstinence\r'
p2164
F-0.008814225166762904
sS'snubbed"'
p2165
F0.23798407950259814
sS'pictures'
p2166
F0.1372056611570261
sS'wow'
p2167
F1.7265045695592363
sS'please'
p2168
F-0.8727109451650895
sS"kid's"
p2169
F-0.004407112583381452
sS'fans'
p2170
F-0.054253991402919075
sS'1472'
p2171
F-0.19832006625216514
sS'probably'
p2172
F-0.18934158188828837
sS'piss'
p2173
F5.793016654502259
sS'europe'
p2174
F0.08322558409190242
sS'days?'
p2175
F-0.009543020297481983
sS'4gv'
p2176
F-0.008814225166762904
sS'kevin@person'
p2177
F-0.12883077401600684
sS'chapstick'
p2178
F-0.004407112583381452
sS'pisses'
p2179
F0.9977906834971105
sS'sold'
p2180
F-0.06589353490922302
sS'pepsi'
p2181
F-0.023857550743704957
sS'genre'
p2182
F-0.24679830466936103
sS'clueless'
p2183
F0.1366204900848249
sS'pissed'
p2184
F0.035256900667051616
sS'both'
p2185
F0.28944963732980383
sS'c'
p2186
F-0.8984265700965163
sS'last'
p2187
F-1.362024904724606
sS"frickin'"
p2188
F-0.008814225166762904
sS"wouldn't"
p2189
F0.005716902548209423
sS'weekend"@person:'
p2190
F-0.035256900667051616
sS'foreign'
p2191
F0.013221337750144356
sS'selfies?'
p2192
F-0.008814225166762904
sS'woke'
p2193
F-0.03214228543339877
sS'8am'
p2194
F-0.03817208118992793
sS'retarded'
p2195
F5.019543040542828
sS'picture"'
p2196
F-0.004407112583381452
sS'whole'
p2197
F-0.01715070764462827
sS'load'
p2198
F-0.023857550743704957
sS'liked'
p2199
F0.005491127909101918
sS'size?'
p2200
F-0.2340719552584757
sS'headed'
p2201
F1.858895507564889
sS'simple'
p2202
F-0.17875125867770467
sS'sweet'
p2203
F-0.018205731858407063
sS'smashing'
p2204
F0.07634416237985586
sS'dudes'
p2205
F0.041612792045951204
sS'simply'
p2206
F-0.16606847473922692
sS'likes'
p2207
F0.2861018760842328
sS'bitch!'
p2208
F-1.3045053246809155
sS'mayihlome'
p2209
F-0.004407112583381452
sS'mission'
p2210
F0.11963677713210977
sS'expensive'
p2211
F0.02507011767580685
sS'(beauty'
p2212
F-0.03966401325043307
sS'ps'
p2213
F0.01744436350278697
sS'worthless'
p2214
F0.7139522385077942
sS'devil'
p2215
F-0.3437547815037528
sS'288'
p2216
F-0.10497322327230185
sS'create'
p2217
F-0.005609840707533977
sS'hey!'
p2218
F-0.08588718267733786
sS'\xe2\x80\x9cfrogs"'
p2219
F-0.035256900667051616
sS'describes'
p2220
F-0.14984182783496924
sS'damn'
p2221
F0.5900121565067442
sS'filty'
p2222
F0.35697611925389716
sS'ireland'
p2223
F-0.10028047070322739
sS'po'
p2224
F-0.017628450333525808
sS'zswagger\r'
p2225
F-0.3525690066705157
sS'pm'
p2226
F-0.22223298236144048
sS'zswaggers'
p2227
F-0.3525690066705157
sS'(3)'
p2228
F-0.16546277666032516
sS'gay'
p2229
F4.145654191640561
sS'like!'
p2230
F0.2757712944338754
sS'fire'
p2231
F-0.005905233729331358
sS"what's"
p2232
F-0.49100299411085374
sS'faggot?'
p2233
F1.0136358941777328
sS'great'
p2234
F-0.6458754905872894
sS'else'
p2235
F-0.06757495567287891
sS'38'
p2236
F-0.06396266617688554
sS'awake'
p2237
F-0.668877598140504
sS'virgin?\xe2\x80\x99'
p2238
F-0.008814225166762904
sS'bitcha'
p2239
F0.34816189408713427
sS'rocking'
p2240
F-0.05173083593523525
sS'dance?'
p2241
F-0.02203556291690726
sS'pact'
p2242
F-0.013221337750144356
sS'stolen'
p2243
F-0.12629594190934412
sS'look'
p2244
F0.4089177169711542
sS'bill'
p2245
F-0.010403198011487803
sS'tolerate'
p2246
F-0.004407112583381452
sS'brazzers'
p2247
F-0.47156104642181473
sS'while'
p2248
F-0.04904586904271464
sS'"12'
p2249
F0.2576615480320138
sS'smart'
p2250
F-0.07687579072742685
sS'<u+1f602>'
p2251
F0.030849788083670164
sS'heyy'
p2252
F-0.3129049934200827
sS'fun'
p2253
F-0.7580204760385156
sS'fleet'
p2254
F-0.004407112583381452
sS'god"@person:'
p2255
F-0.008814225166762904
sS'con!!!'
p2256
F0.07051380133410323
sS'2night'
p2257
F-0.31299429081880964
sS'theres'
p2258
F0.16546277666032516
sS'comingsoon'
p2259
F-0.017628450333525808
sS':3"@person:'
p2260
F-0.21326555923550009
sS'calculator'
p2261
F-0.030849788083670164
sS'season!!'
p2262
F-0.14984182783496924
sS'rip'
p2263
F0.017628450333525808
sS'itself'
p2264
F0.07634416237985586
sS'seen'
p2265
F-0.007282368534164933
sS'ready'
p2266
F-0.3444257702786891
sS'1000+'
p2267
F-0.004407112583381452
sS'funny'
p2268
F-0.4054497340372732
sS'\xe2\x99\xa1\xe2\x99\xa1\xe2\x99\xa1'
p2269
F-0.014314530446222974
sS'stanblock'
p2270
F-0.30849788083670127
sS'james'
p2271
F-0.26927235396163096
sS'theatre!'
p2272
F-0.7536162517582272
sS'twat~'
p2273
F0.017628450333525808
sS'some1'
p2274
F-0.10028047070322739
sS'read'
p2275
F-0.35629814409034166
sS'9'
p2276
F0.7048408462175765
sS'koons'
p2277
F0.26001964241950537
sS'mountain'
p2278
F-0.0058147878342623225
sS'keys'
p2279
F0.18050484726580926
sS'yesterday'
p2280
F-0.024572711153774147
sS'moment'
p2281
F-0.03365904424520386
sS'000'
p2282
F-0.4812533887476658
sS'purpose'
p2283
F-0.005201599005743901
sS'haunting'
p2284
F-0.19086040594963982
sS'!!"\r'
p2285
F-0.2908694305031755
sS'fuxk'
p2286
F0.21594851658569092
sS'spent'
p2287
F0.10316581386430672
sS'harm'
p2288
F-0.017628450333525808
sS'person'
p2289
F0.5123104932234402
sS'fuckwit'
p2290
F0.771244702091753
sS'theatres'
p2291
F-0.035256900667051616
sS'5am'
p2292
F-0.7270334125983996
sS'chemistry'
p2293
F0.07492091391748468
sS'cuntish'
p2294
F0.1762845033352579
sS'theyretheone'
p2295
F-0.25092471023850055
sS'know'
p2296
F0.25345590103142096
sS'lads'
p2297
F-0.04011218828129096
sS'\xe2\x99\xabsong:'
p2298
F-0.004407112583381452
sS'pigeons'
p2299
F-0.09254936425101046
sS'\xf0\x9f\x98\x98\xf0\x9f\x98\x8a\xe2\x80\xa6'
p2300
F-0.04847823841719597
sS'4th'
p2301
F-0.018641703187080607
sS'aroma'
p2302
F-0.07932802650086612
sS'shape'
p2303
F-0.07282238608041461
sS'cocky'
p2304
F0.850572728592619
sS'sam'
p2305
F-0.00501402353516137
sS'using'
p2306
F-0.069637484420108
sS'u????'
p2307
F0.09254936425101046
sS'prince'
p2308
F-0.03817208118992793
sS'meanest'
p2309
F-0.28392352132835585
sS'cut'
p2310
F-0.11048096885098416
sS'cus'
p2311
F0.02005609414064548
sS'follow?'
p2312
F-0.08793711359494874
sS'tablet'
p2313
F-0.0969564768343919
sS'marrying'
p2314
F-0.01002804707032274
sS'extra'
p2315
F-0.011219681415067954
sS'guys?'
p2316
F-0.03008414121096822
sS'ladies:'
p2317
F-0.009543020297481983
sS'parents'
p2318
F0.0
sS'siblings'
p2319
F-0.012814302723152161
sS'snap'
p2320
F0.0624191880689268
sS'cum'
p2321
F0.2861018760842328
sS'picks!!'
p2322
F-0.030849788083670164
sS'excited'
p2323
F-0.1738850289002123
sS'tomar'
p2324
F-0.02203556291690726
sS'bio'
p2325
F-0.016071142716699384
sS'happybday!\r'
p2326
F-0.02203556291690726
sS'678'
p2327
F-0.004407112583381452
sS'demands'
p2328
F-0.24679830466936103
sS'"2'
p2329
F-0.2557152002932298
sS'675'
p2330
F-0.004407112583381452
sS'showing'
p2331
F-0.010403198011487803
sS'laughed'
p2332
F-0.01002804707032274
sS'game'
p2333
F-0.18801610884940145
sS'to\xe2\x96\xb7@person'
p2334
F-0.008814225166762904
sS'bit'
p2335
F-0.6002747675619906
sS"67'"
p2336
F-0.008814225166762904
sS'bir'
p2337
F0.008814225166762904
sS'like'
p2338
F0.64298393388732
sS'18\r'
p2339
F-0.1762845033352579
sS'd'
p2340
F-0.18801610884940148
sS"ain't"
p2341
F0.3666201626792517
sS'follows'
p2342
F-0.041612792045951204
sS'eew'
p2343
F-0.15865605300173213
sS'fagot'
p2344
F0.02203556291690726
sS'ignore'
p2345
F-0.3743863475488109
sS'distrust'
p2346
F-0.08373513908424757
sS'1410'
p2347
F-0.004407112583381452
sS'fault'
p2348
F-0.18205596520103665
sS'google'
p2349
F-0.017968531401930304
sS'often'
p2350
F-0.27551748149626487
sS'course'
p2351
F-0.005609840707533977
sS'fucking'
p2352
F3.7817839870766576
sS'spring'
p2353
F-0.1882706313912645
sS'1st'
p2354
F-0.5734954750869329
sS'some'
p2355
F-0.9688132358809338
sS'back'
p2356
F0.4778154079132005
sS'b4'
p2357
F-0.026007995028719505
sS'\xf0\x9f\x98\x8a\xf0\x9f\x92\x95'
p2358
F-0.1850987285020208
sS'lips'
p2359
F-0.24967675227570743
sS'pack'
p2360
F-0.32142285433398793
sS'loads'
p2361
F-0.3160658067617548
sS'b2'
p2362
F-0.02203556291690726
sS'candle'
p2363
F-0.07932802650086612
sS'myvote4aap'
p2364
F-0.26001964241950537
sS'scale'
p2365
F-0.18567514425024628
sS'besttt'
p2366
F-0.017628450333525808
sS'absolutely'
p2367
F0.0761463757726394
sS'though'
p2368
F-0.012427802124720404
sS'per'
p2369
F-0.01682952212260193
sS'fundamentalist'
p2370
F0.12780626491806202
sS'ass??"'
p2371
F-0.017628450333525808
sS'1521'
p2372
F-0.008814225166762904
sS'gistpagedotcom"'
p2373
F-0.04011218828129096
sS'good)'
p2374
F-0.008814225166762904
sS'dating'
p2375
F-0.8420353085957938
sS'anna'
p2376
F-0.019086040594963966
sS't'
p2377
F0.23278876170855878
sS'be'
p2378
F1.0076032179274799
sS'bf'
p2379
F-0.24010990702479562
sS'ebook'
p2380
F-0.005201599005743901
sS'run'
p2381
F-0.006919935712340111
sS'cloth"\r'
p2382
F-0.013221337750144356
sS'bc'
p2383
F-0.4262530014622184
sS'hypocritical'
p2384
F1.3970546889319282
sS'zombie'
p2385
F-0.045126211816452336
sS'nowhere'
p2386
F-0.00501402353516137
sS'chick'
p2387
F-0.023857550743704957
sS'everyday'
p2388
F0.1525271017724888
sS'from'
p2389
F-0.16056782016775767
sS'30$'
p2390
F-0.2423911920859796
sS'by'
p2391
F-0.4287096566564949
sS'songs\xf0\x9f\x98\x8d\xe2\x9d\xa4\xef\xb8\x8f'
p2392
F-0.10577070200115479
sS'anything'
p2393
F0.030982447312203627
sS'virus'
p2394
F0.01002804707032274
sS'74'
p2395
F-0.02745563954550959
sS'forget:'
p2396
F-0.07932802650086612
sS'idk'
p2397
F-0.04285638057786502
sS'house??????'
p2398
F0.06610668875072179
sS'blahniks'
p2399
F-0.013221337750144356
sS"'starlet"
p2400
F-0.06169957616734033
sS'saturday\r'
p2401
F-0.004407112583381452
sS'wanna'
p2402
F-0.2993196270561718
sS'block'
p2403
F-0.08111567252859686
sS'seeing'
p2404
F-0.14594722023089218
sS'garbage'
p2405
F-0.7536162517582272
sS'dude'
p2406
F-0.337493997050687
sS'into'
p2407
F-1.398645364479201
sS'because'
p2408
F0.46324341408652475
sS'smelly'
p2409
F0.7844660398418973
sS'1975hann'
p2410
F-0.035256900667051616
sS'(y)\xe2\x98\xba'
p2411
F-0.004407112583381452
sS'rolls'
p2412
F-0.10020171312356085
sS'alison'
p2413
F0.11017781458453624
sS'impressed'
p2414
F-0.00501402353516137
sS'scumbags!'
p2415
F0.1454347152515878
sS'apocalypse?'
p2416
F-0.017628450333525808
sS'question'
p2417
F-0.7556108679785546
sS'long'
p2418
F-0.07586127762654901
sS'galsinger:'
p2419
F-0.004407112583381452
sS'5fm'
p2420
F-0.13537863544935697
sS'syllabus'
p2421
F-0.00501402353516137
sS'takethecowboythinghatoff'
p2422
F0.052885351000577424
sS'forward'
p2423
F-0.12629594190934412
sS'queeer'
p2424
F2.19474206652398
sS'footage'
p2425
F-0.013221337750144356
sS'jewish'
p2426
F1.4129934437257432
sS'ahhh'
p2427
F0.08814225166762901
sS'boys'
p2428
F-0.5621746350612492
sS'brollie'
p2429
F-0.26001964241950537
sS'properly'
p2430
F0.2338039972883088
sS'link'
p2431
F-0.12211054451950881
sS'reaslise'
p2432
F0.2556125298361239
sS'line'
p2433
F-0.1586382828596654
sS'\xe2\x99\xa5'
p2434
F-0.2546091445292095
sS'\xe2\x99\xa1'
p2435
F-0.28007282209593604
sS'anc@person:'
p2436
F-0.004407112583381452
sS'4ever'
p2437
F-0.21154140400230947
sS'fries'
p2438
F-0.01002804707032274
sS'\xf0\x9f\x92\x96\xf0\x9f\x98\x8a\xf0\x9f\x92\x9e\xf0\x9f\x8c\x9a\xf0\x9f\x92\x9a\xf0\x9f\x8c\x9d'
p2439
F-0.07521035302742056
sS'us'
p2440
F0.2638889413234351
sS'ur'
p2441
F0.30688359498446227
sS'row!'
p2442
F-0.24106714075049068
sS'uk'
p2443
F-0.035937062803860616
sS'insist'
p2444
F-0.008814225166762904
sS'\xe2\x80\x9c7'
p2445
F-0.10497322327230185
sS'similar'
p2446
F-0.004407112583381452
sS'called'
p2447
F0.0988513931824595
sS'\xe2\x80\x9c1'
p2448
F-0.008814225166762904
sS'fans!'
p2449
F-0.10529449423838876
sS'm'
p2450
F-0.08051768935212447
sS'simple:'
p2451
F-0.004407112583381452
sS'\ri'
p2452
F-0.21154140400230947
sS'single'
p2453
F-0.19043851144174956
sS'gospelqna"'
p2454
F-0.03966401325043307
sS'problem"'
p2455
F-0.017628450333525808
sS'stripper'
p2456
F0.3437547815037528
sS'ugly:'
p2457
F1.4146831392654544
sS'*both'
p2458
F-0.11458492716791768
sS'1701'
p2459
F-0.04847823841719597
sS'1"@person:'
p2460
F-0.33957902216353236
sS'nah'
p2461
F-0.2915620299586806
sS'prowrestling'
p2462
F-0.09254936425101046
sS'5countries5days'
p2463
F-0.006345531314386619
sS'points'
p2464
F-0.08551921102926026
sS'18000!!!'
p2465
F-0.11017781458453624
sS'tits'
p2466
F0.019086040594963966
sS'2do'
p2467
F-0.009543020297481983
sS'nice'
p2468
F-0.36858220603855146
sS'smiles'
p2469
F-0.07157265223111486
sS'draw'
p2470
F0.9334917445473251
sS'nbc4'
p2471
F-0.004407112583381452
sS'2014:'
p2472
F-0.08385314654234143
sS'princessapplzz'
p2473
F-0.11899203975129913
sS'problems'
p2474
F0.4660425796770148
sS'bravado'
p2475
F0.004407112583381452
sS'"281'
p2476
F-0.1762845033352579
sS'emmerdale'
p2477
F0.09254936425101046
sS'meals'
p2478
F-0.04294359133866892
sS'ago'
p2479
F-0.36102333513127843
sS'back?'
p2480
F0.19554691787129336
sS'tailored'
p2481
F-0.004407112583381452
sS'suffers'
p2482
F0.3305334437536085
sS'e'
p2483
F-0.4611378627415776
sS'practically'
p2484
F0.07051380133410323
sS'age'
p2485
F-0.6919254387644225
sS'teaser'
p2486
F-0.05725812178489189
sS'impeccably'
p2487
F-0.1542489404183507
sS'texter'
p2488
F-0.33494055633698994
sS'nasa'
p2489
F0.5464819603392993
sS'(sob)'
p2490
F-0.04847823841719597
sS"she's"
p2491
F0.024274309144542764
sS'200th'
p2492
F-0.11443517812636586
sS'hello'
p2493
F-0.15435636880165435
sS'once'
p2494
F0.48304586990177967
sS'code'
p2495
F-0.17047680019548653
sS'edm'
p2496
F-0.31086945918000514
sS'gf'
p2497
F-0.0572175890631829
sS'ugh!!!!'
p2498
F0.0969564768343919
sS'014'
p2499
F-0.008814225166762904
sS'gang'
p2500
F0.4407112583381446
sS'\xe2\x99\xa5\xe2\x99\xa5'
p2501
F-0.021428190288932513
sS'go'
p2502
F2.362225280920953
sS'bait'
p2503
F0.29527654308655693
sS'sabres!!'
p2504
F-0.14984182783496924
sS'tweeted'
p2505
F0.13955490802229575
sS'issues'
p2506
F-0.00501402353516137
sS'seemed'
p2507
F-0.2433470175857908
sS'this\r@person'
p2508
F-0.21154140400230947
sS'500th'
p2509
F-0.10974473342104285
sS'didn\xe2\x80\x99t'
p2510
F-0.2678395215626785
sS'crisis?'
p2511
F0.017628450333525808
sS'send'
p2512
F0.46557752341711767
sS'suits'
p2513
F-0.026442675500288712
sS'bruh'
p2514
F-0.09147044077135075
sS'woohoo'
p2515
F-0.09254936425101046
sS'helps'
p2516
F-0.005201599005743901
sS'friendly'
p2517
F-0.011219681415067954
sS'malaysiagp'
p2518
F-0.026442675500288712
sS'retire'
p2519
F0.10974473342104285
sS'kca'
p2520
F-1.3739020119625558
sS'711'
p2521
F-0.004771510148740991
sS'\xc2\xa352'
p2522
F-0.16747027816849502
sS'prly'
p2523
F-0.18509872850202091
sS'facebook'
p2524
F0.0524485240436626
sS'enslaved'
p2525
F-0.07932802650086612
sS'mlas'
p2526
F-0.19832006625216514
sS'looooove'
p2527
F-0.04847823841719597
sS'wipe'
p2528
F0.2910621190732008
sS'hehehe"@person:'
p2529
F-0.009543020297481983
sS'gordsmustache\r'
p2530
F-0.004407112583381452
sS'letr2jil\xe2\x80\x9d'
p2531
F-0.030849788083670164
sS'evo'
p2532
F0.2732409801696497
sS'notes'
p2533
F-0.31944524499906374
sS'ryan'
p2534
F0.14314530446222984
sS'try'
p2535
F-0.10243519946466413
sS'slaps'
p2536
F-0.5244463974223921
sS'race'
p2537
F-0.19765384542123343
sS'min'
p2538
F-0.006919935712340111
sS':)\xe2\x80\x9d'
p2539
F-0.2247627417524538
sS'radio'
p2540
F-0.28584512741047113
sS'language?'
p2541
F-0.019036593943159857
sS'someday'
p2542
F-0.17200897807641896
sS'booty'
p2543
F-0.29649114332740256
sS"you'd"
p2544
F0.49603963326383493
sS"work's"
p2545
F-0.008814225166762904
sS'jump'
p2546
F0.005201599005743901
sS'some?"'
p2547
F-0.004407112583381452
sS'100"@person:'
p2548
F-0.00501402353516137
sS'video'
p2549
F-0.12051929247177631
sS"59'"
p2550
F-0.026442675500288712
sS'click'
p2551
F-0.11780665485821357
sS'followers!!'
p2552
F-0.008814225166762904
sS'allies!'
p2553
F-0.057292463583958876
sS'vampire'
p2554
F-0.08078071381068264
sS'sweaty'
p2555
F0.04407112583381452
sS'3k'
p2556
F-0.10923357912062195
sS'lmfao'
p2557
F-0.05014023535161371
sS'waiting'
p2558
F-0.31413461169163664
sS'biro'
p2559
F-0.04847823841719597
sS'1403'
p2560
F-0.004407112583381452
sS';'
p2561
F-0.0785377699054757
sS"'got'"
p2562
F-0.008814225166762904
sS'3g'
p2563
F-2.049307351272396
sS'3e'
p2564
F-0.04407112583381452
sS'chinookdspt'
p2565
F-0.035256900667051616
sS'nacho'
p2566
F-0.11458492716791768
sS'chose'
p2567
F-0.00501402353516137
sS'degree'
p2568
F-0.08236691863652877
sS'\xf0\x9f\x98\xad\xf0\x9f\x98\xa9\xf0\x9f\x98\x82'
p2569
F-0.3437547815037528
sS'mistake'
p2570
F-0.10577070200115479
sS'lel'
p2571
F0.3217192185868456
sS'punch'
p2572
F0.1017839038724294
sS'death?'
p2573
F-0.07492091391748468
sS'explore'
p2574
F-0.06169957616734033
sS'let'
p2575
F-0.30615624024772364
sS'others'
p2576
F-0.005716902548209423
sS'2014phan'
p2577
F-0.07051380133410323
sS'haters'
p2578
F-0.23064508261742292
sS'everything!'
p2579
F-0.08588718267733786
sS'chicagopd'
p2580
F-0.06169957616734033
sS"54'"
p2581
F-0.004407112583381452
sS'3:'
p2582
F-0.07086280475197627
sS'convert'
p2583
F0.02203556291690726
sS'brother"@person:'
p2584
F-0.008814225166762904
sS'360'
p2585
F-0.06169957616734033
sS'here!1!!'
p2586
F-0.04407112583381452
sS'33'
p2587
F-0.13391976078133924
sS'involved'
p2588
F-0.5678097077001787
sS'30'
p2589
F-0.8867037133903315
sS'36'
p2590
F-0.0064071513615760805
sS'3)'
p2591
F-0.13957727758112085
sS'survey'
p2592
F-0.010403198011487803
sS"weren't"
p2593
F0.2600799502871952
sS'edtech'
p2594
F-0.004771510148740991
sS'opinion'
p2595
F0.00501402353516137
sS'cad'
p2596
F-0.18950584108540225
sS'makes'
p2597
F0.7081299863001381
sS'weekends'
p2598
F-0.04011218828129096
sS'thats'
p2599
F3.338671088154322
sS'named'
p2600
F-0.004407112583381452
sS'wid'
p2601
F-0.19086040594963982
sS'rdma2014'
p2602
F-0.06169957616734033
sS'heart'
p2603
F-1.0694231195575785
sS'egypt'
p2604
F-0.0676207870746707
sS'win'
p2605
F-0.3502935029220855
sS'negro!!!'
p2606
F0.0969564768343919
sS'dedicated'
p2607
F-0.12902633627328153
sS'taylorswift'
p2608
F-0.1009974649091125
sS'wit'
p2609
F-0.052333090508360894
sS'apply'
p2610
F-0.35356513976738685
sS'singing'
p2611
F-0.005609840707533977
sS'announced'
p2612
F-0.13537863544935697
sS'use'
p2613
F0.27213995822033876
sS'crap'
p2614
F0.29128954432165866
sS'smile\xe2\x80\xa6'
p2615
F-0.008814225166762904
sS'doodle'
p2616
F-0.2027271788355467
sS'flights'
p2617
F-0.004771510148740991
sS'next'
p2618
F-0.4778742766588957
sS'few'
p2619
F0.1409573299546737
sS'o"@person:'
p2620
F-0.02203556291690726
sS'doubt'
p2621
F-0.49284837664544884
sS'vehicle'
p2622
F-0.04407112583381452
sS"'the"
p2623
F-0.4880561415554551
sS'brazilians'
p2624
F-0.004407112583381452
sS'babe'
p2625
F-0.012562444799278387
sS'10rt'
p2626
F-0.004407112583381452
sS'ulit!'
p2627
F-0.004407112583381452
sS'becomes'
p2628
F0.6584684005262577
sS'impress'
p2629
F-0.019086040594963966
sS'sister'
p2630
F-0.02362093491732543
sS'cooperate'
p2631
F-0.013221337750144356
sS'train'
p2632
F-0.052333090508360894
sS'losin'
p2633
F-0.26883386758626826
sS'baby'
p2634
F-0.12793889585932056
sS'4am'
p2635
F-0.31299429081880964
sS'iii'
p2636
F-0.08588718267733786
sS'women'
p2637
F1.3062591980293836
sS'account'
p2638
F-0.22370043824496721
sS'balls'
p2639
F0.019086040594963966
sS'us!'
p2640
F-0.0058147878342623225
sS'f'
p2641
F0.6345761828512473
sS'this'
p2642
F0.703772692025989
sS'ride'
p2643
F-0.0803557135834969
sS'when'
p2644
F-1.406316372756926
sS'pour'
p2645
F-0.00501402353516137
sS'sabi'
p2646
F-0.04407112583381452
sS'inductee:'
p2647
F-0.008814225166762904
sS'island'
p2648
F-0.29128954432165866
sS'meet'
p2649
F1.6570893305925805
sS'drops'
p2650
F-0.2958336292219418
sS'didnt'
p2651
F0.04821342815009815
sS'\xd8\xac\xd8\xa7\xda\xa4\xd8\xa7\xd8\xaf'
p2652
F-0.08699461487304284
sS"'here's"
p2653
F-0.20272717883554658
sS'gumballs'
p2654
F-0.17628450333525802
sS'lock'
p2655
F-0.10974473342104285
sS'booty\xf0\x9f\x98\x8b"'
p2656
F-0.12780626491806202
sS'tax'
p2657
F-0.00501402353516137
sS'high'
p2658
F-0.03622604768754423
sS'slit'
p2659
F0.9543020297481994
sS'tag'
p2660
F-0.0058147878342623225
sS'pulling'
p2661
F0.004771510148740991
sS'something'
p2662
F0.05503952353807906
sS'hit'
p2663
F-0.2694476357641027
sS'rape'
p2664
F4.4735995766426075
sS'native'
p2665
F-0.01957011499886182
sS'lamc'
p2666
F-0.035256900667051616
sS':30'
p2667
F-0.06610668875072179
sS'sit'
p2668
F1.1605312172865132
sS'destroying'
p2669
F0.00501402353516137
sS'tickling'
p2670
F0.008814225166762904
sS'bookplugs'
p2671
F-0.06610668875072179
sS'bandana'
p2672
F-0.004407112583381452
sS'gurl'
p2673
F-0.2785664737561227
sS'profile'
p2674
F0.00501402353516137
sS'attend'
p2675
F-0.11219681415067959
sS'peeling'
p2676
F-0.07932802650086612
sS'act'
p2677
F-1.5696149386643017
sS'awesome?'
p2678
F-0.017628450333525808
sS'fart'
p2679
F0.02862906089244595
sS'stars'
p2680
F-0.2035175741991812
sS'awesome:'
p2681
F-0.019086040594963966
sS'taco'
p2682
F-0.4057247224480246
sS'hahahaha'
p2683
F1.5593613194351927
sS'quickest'
p2684
F-0.06610668875072179
sS'light'
p2685
F-0.016473383727305755
sS'lame'
p2686
F-0.005201599005743901
sS'lines'
p2687
F0.02203556291690726
sS'sux'
p2688
F-0.08814225166762901
sS'raping'
p2689
F0.6831024504241241
sS'honestly'
p2690
F0.02062514523204284
sS'"by'
p2691
F-0.017628450333525808
sS'healthcare'
p2692
F-0.017628450333525808
sS'houston'
p2693
F-0.01002804707032274
sS'me?\r'
p2694
F-0.013221337750144356
sS'13%'
p2695
F-0.008814225166762904
sS'sperm'
p2696
F0.004407112583381452
sS'webdesign'
p2697
F-0.10020171312356085
sS'dearest'
p2698
F-0.5153230960640277
sS"won't"
p2699
F-0.13927496884021598
sS'tropico'
p2700
F-0.004407112583381452
sS'+1rt'
p2701
F-0.015604797017231704
sS'10markah'
p2702
F-0.013221337750144356
sS'bc;'
p2703
F-0.07932802650086612
sS'badger'
p2704
F-0.008814225166762904
sS'perfect'
p2705
F-1.5016260495778058
sS'1'
p2706
F-1.8946490306738473
sS'566'
p2707
F-0.019086040594963966
sS'now?'
p2708
F-0.2861018760842328
sS'll'
p2709
F-0.11451624356978385
sS'emails'
p2710
F-0.010403198011487803
sS'willing'
p2711
F-0.0624191880689268
sS'2018'
p2712
F-0.24679830466936103
sS'orange'
p2713
F-0.31588348271516653
sS'2014'
p2714
F-1.6476318347475947
sS'criminal'
p2715
F-0.2147179566933448
sS'\xf0\x9f\x95\x90'
p2716
F-0.017628450333525808
sS'pending'
p2717
F-0.19832006625216514
sS'2012'
p2718
F-0.06909344639603114
sS'dad'
p2719
F0.11219681415067959
sS'dam'
p2720
F-0.019086040594963966
sS'practice'
p2721
F0.3029313982068347
sS'10!!!!"@person:'
p2722
F-0.004407112583381452
sS'024'
p2723
F-0.004407112583381452
sS'kiss'
p2724
F-0.05145212293388481
sS'hands'
p2725
F-0.34250355630121904
sS'front'
p2726
F-0.08722181751393485
sS'bar'
p2727
F-0.01002804707032274
sS'cage'
p2728
F-0.0969564768343919
sS'day'
p2729
F-1.208976606016095
sS'10pm'
p2730
F-0.34220028315957235
sS'tram'
p2731
F0.02203556291690726
sS'"die'
p2732
F-0.15865605300173213
sS'them?'
p2733
F-0.07157265223111486
sS'alike'
p2734
F-0.07932802650086612
sS'|'
p2735
F-0.8068005451387944
sS'spanglish'
p2736
F-0.017628450333525808
sS'??"@person:'
p2737
F-0.008814225166762904
sS'lectures'
p2738
F-0.008814225166762904
sS'lfc'
p2739
F-0.1682952212260194
sS'doing'
p2740
F-0.3654898977970282
sS'levy'
p2741
F1.159956578280891
sS'88'
p2742
F-0.23565910615258429
sS'our'
p2743
F-0.8150129508247195
sS'81'
p2744
F-0.05515425888677508
sS'06h00"@person:'
p2745
F-0.004407112583381452
sS'special'
p2746
F-0.012562444799278387
sS'out'
p2747
F-0.46524752181432133
sS'semen'
p2748
F0.035256900667051616
sS'time?'
p2749
F-0.7629383362246214
sS"'"
p2750
F-0.1476308432332839
sS'twice'
p2751
F0.4057247224480246
sS'cunt!'
p2752
F1.6604855317618519
sS'may'
p2753
F0.6987026453594866
sS'mate'
p2754
F0.00501402353516137
sS'burka'
p2755
F2.7176007560574873
sS'kwasiato'
p2756
F-0.004407112583381452
sS'cause'
p2757
F-0.18310722098485177
sS'math'
p2758
F-0.005609840707533977
sS'shut'
p2759
F4.4412812732998335
sS'disappointed!'
p2760
F-0.06610668875072179
sS'scumbag'
p2761
F1.7678256988369263
sS'knuckles'
p2762
F-0.5641104106728251
sS'greedy'
p2763
F0.06680114208237388
sS'58%'
p2764
F-0.004407112583381452
sS'que'
p2765
F-0.11928775371852485
sS'20scottm'
p2766
F-0.5420748477559179
sS'bum!'
p2767
F0.12339915233468057
sS'vote1duk'
p2768
F-0.4469895986352957
sS'"can'
p2769
F-0.004407112583381452
sS'includes:'
p2770
F-0.03966401325043307
sS'g'
p2771
F1.3359887284074372
sS'could'
p2772
F-0.8889447354785516
sS'compulsive'
p2773
F0.6037744239232581
sS'timer'
p2774
F0.004771510148740991
sS'keep'
p2775
F-0.20665513093775154
sS'produce'
p2776
F-0.07406480760001584
sS'qualifying'
p2777
F-0.07157265223111486
sS'cunts'
p2778
F0.2732409801696497
sS'scare'
p2779
F-0.004771510148740991
sS'\xe2\x80\x9c16'
p2780
F-0.06610668875072179
sS'30!!'
p2781
F-0.14984182783496924
sS'obscurity'
p2782
F0.013221337750144356
sS'blown'
p2783
F-0.004407112583381452
sS'have?'
p2784
F-0.016763854083059148
sS'jesus'
p2785
F-0.09362878210339023
sS'twat'
p2786
F4.93087016399163
sS'2"@person:'
p2787
F-0.012932708983808813
sS'"no"'
p2788
F-0.12780626491806202
sS'bitch'
p2789
F3.565953183135473
sS'such'
p2790
F2.6018958278398743
sS'gays!!'
p2791
F0.09254936425101046
sS'noticed'
p2792
F-0.02286761019283769
sS'rocks!!!'
p2793
F-0.2247627417524538
sS"you're"
p2794
F1.2755291100821426
sS'65%'
p2795
F-0.07932802650086612
sS'thirties'
p2796
F-0.014314530446222974
sS'monkey'
p2797
F0.01002804707032274
sS'(1)'
p2798
F-0.005201599005743901
sS'bffs'
p2799
F-0.06610668875072179
sS'5amweekday'
p2800
F-0.035256900667051616
sS'baby!'
p2801
F0.021964511636407672
sS'their'
p2802
F-0.2643645308426148
sS'vagina'
p2803
F1.3086601426771203
sS'655'
p2804
F-0.02203556291690726
sS'be?'
p2805
F-0.06428457086679752
sS'$11'
p2806
F-0.23565910615258429
sS'gummy'
p2807
F-0.3129049934200827
sS'stomach'
p2808
F-0.03817208118992793
sS'ohhhhhhh'
p2809
F0.008814225166762904
sS'exactly'
p2810
F-0.005989510467310102
sS'tosspot'
p2811
F0.03966401325043307
sS'negro'
p2812
F1.240994907457031
sS'transsexual'
p2813
F0.37217779160179776
sS'dahsyatttt'
p2814
F-0.004407112583381452
sS'sex'
p2815
F0.4344062686640439
sS'herself'
p2816
F-0.004407112583381452
sS'shanika'
p2817
F-0.2247627417524538
sS'remember'
p2818
F-0.21169941222697242
sS'lovee'
p2819
F-0.004771510148740991
sS'loved'
p2820
F-0.12792533235377113
sS'beo'
p2821
F-0.18950584108540225
sS'bel'
p2822
F-0.057292463583958876
sS'boring'
p2823
F-0.3294676745461154
sS'65k'
p2824
F-0.004407112583381452
sS'bed'
p2825
F0.3743863475488109
sS'5secsoflovisa'
p2826
F-0.035256900667051616
sS";0what's"
p2827
F-0.030849788083670164
sS'decided'
p2828
F-0.07687579072742685
sS'loves'
p2829
F2.305689313707876
sS'sec'
p2830
F-0.08722181751393485
sS'india'
p2831
F-0.4173338860192884
sS'bet'
p2832
F0.011979020934620202
sS'bathcomfest'
p2833
F-0.08111567252859686
sS'partnership'
p2834
F-0.004771510148740991
sS'tonight'
p2835
F-0.1044256850848653
sS'anything4court'
p2836
F-0.08373513908424757
sS'scumbhaaagggg'
p2837
F0.5861459735897323
sS'have'
p2838
F-0.8810854407686769
sS'need'
p2839
F0.2582232425672687
sS'gn!\r'
p2840
F-0.11458492716791768
sS'turn'
p2841
F-0.3541923605545313
sS'beliebers'
p2842
F-0.09025242363290466
sS'jug'
p2843
F-0.004407112583381452
sS'screw'
p2844
F0.004407112583381452
sS'bastard'
p2845
F2.90480666391494
sS'congrats'
p2846
F0.19077362460373443
sS'krista'
p2847
F-0.38341879475418583
sS'327'
p2848
F-0.12780626491806202
sS'which'
p2849
F-0.29970585167807173
sS'asshole'
p2850
F3.201327571006454
sS'you\xe2\x80\x99d'
p2851
F-0.013221337750144356
sS'misplacing'
p2852
F-0.004407112583381452
sS'whe'
p2853
F-0.1366204900848249
sS'unless'
p2854
F-0.08373513908424757
sS'^^'
p2855
F-0.10974473342104285
sS'felizcumplea\xc3\xb1os!'
p2856
F-0.004407112583381452
sS'*4'
p2857
F-0.004407112583381452
sS'who'
p2858
F0.2704162157863599
sS'again!'
p2859
F-0.06428457086679752
sS'awk'
p2860
F0.13221337750144346
sS'forreal'
p2861
F0.030849788083670164
sS'awh'
p2862
F0.1366204900848249
sS'very;'
p2863
F-0.008814225166762904
sS'future'
p2864
F-0.3479784594921711
sS'why'
p2865
F0.8328229986113259
sS'573'
p2866
F-0.8417585034258561
sS'princess\xf0\x9f\x91\xb8'
p2867
F-0.008814225166762904
sS'hypocrite'
p2868
F0.0969564768343919
sS'unlove'
p2869
F-0.0969564768343919
sS'matthew\xe2\x99\xa5'
p2870
F-0.013221337750144356
sS'request'
p2871
F-0.2288703562527318
sS'est\xc3\xa1s'
p2872
F-0.11017781458453624
sS'face'
p2873
F3.005811117046356
sS"you'll"
p2874
F0.1767518867198987
sS'propose?\xe2\x80\x9d'
p2875
F-0.008814225166762904
sS'normally'
p2876
F-0.009543020297481983
sS'\xf0\x9f\x8d\x83\xf0\x9f\x8d\x81\xf0\x9f\x8d\x83\xf0\x9f\x8d\x81\xf0\x9f\x8d\x83\xf0\x9f\x8d\x81\xf0\x9f\x8d\x83\xf0\x9f\x8d\x81\xf0\x9f\x8d\x83\xf0\x9f\x8d\x81'
p2877
F-0.08588718267733786
sS'goals'
p2878
F-0.2598302840905797
sS'hurricanes'
p2879
F-0.08588718267733786
sS'text'
p2880
F0.012427802124720404
sS'dh?!!'
p2881
F-0.4583397086716704
sS'anyway'
p2882
F0.5316719369834773
sS'13m3'
p2883
F-0.26001964241950537
sS'manchester'
p2884
F-0.005357047572233128
sS'overloadmama_by_fancyb'
p2885
F-0.028049203537669886
sS'utter'
p2886
F3.2927432946057804
sS'fear'
p2887
F-0.5515425888677514
sS'$50+'
p2888
F-0.004407112583381452
sS'envy'
p2889
F0.6258099868401653
sS'mugs'
p2890
F-0.03966401325043307
sS'knowledge'
p2891
F0.045126211816452336
sS'('
p2892
F-0.2896564450878935
sS'winner'
p2893
F-0.02745563954550959
sS'should'
p2894
F-0.04108406639033459
sS"there's"
p2895
F-0.16498381417405203
sS'lemme'
p2896
F-0.08523840009774329
sS'communist'
p2897
F0.14102760266820635
sS'2bc'
p2898
F-0.09526644716806602
sS'hope'
p2899
F1.0854136815760969
sS'uppity'
p2900
F1.5513036293502827
sS'this!'
p2901
F-0.04001831783746596
sS'please?'
p2902
F-0.11032147031991903
sS'means'
p2903
F1.3708671522837281
sS'beat'
p2904
F0.7029509907775562
sS'dope'
p2905
F-0.38526186586633226
sS'0%'
p2906
F-0.028049203537669886
sS'lucky'
p2907
F-0.3188826213838935
sS'bear'
p2908
F-0.4161639534183944
sS'99%'
p2909
F-0.08588718267733786
sS'tbh'
p2910
F0.1352415741493415
sS'words'
p2911
F-0.5368978222236062
sS'please!'
p2912
F-0.005905233729331358
sS'bling_saur'
p2913
F-0.052885351000577424
sS'places'
p2914
F-0.0064071513615760805
sS'slimey'
p2915
F0.008814225166762904
sS'wellness'
p2916
F-0.03340057104118694
sS'uait!?'
p2917
F-0.18950584108540225
sS'taxes'
p2918
F-0.005201599005743901
sS'calling'
p2919
F-0.00501402353516137
sS'faithful?'
p2920
F-0.045126211816452336
sS'she'
p2921
F-0.45456408869103115
sS'amazing!'
p2922
F-0.026007995028719505
sS'dangerous'
p2923
F-0.005357047572233128
sS'cleavage'
p2924
F0.42308280800461884
sS'grab'
p2925
F-0.08523840009774329
sS'looks'
p2926
F1.0443656719369028
sS'btw'
p2927
F0.022439362830135916
sS'136'
p2928
F-0.008814225166762904
sS'miss!'
p2929
F-0.004407112583381452
sS'notifications"?\r'
p2930
F-0.013221337750144356
sS'humans'
p2931
F-0.07157265223111486
sS'lazy'
p2932
F1.7356834134035277
sS'mind\r'
p2933
F-0.035256900667051616
sS'038'
p2934
F-0.2732409801696497
sS'4@person'
p2935
F-0.41249266306195154
sS'converting'
p2936
F-0.004407112583381452
sS'pyscogirl'
p2937
F0.16747027816849502
sS'packed'
p2938
F0.1454066825196797
sS'gmail'
p2939
F-0.2948725338452896
sS'somewhat;'
p2940
F-0.008814225166762904
sS'luv'
p2941
F-0.5582196320891826
sS'record'
p2942
F-0.11780665485821357
sS"period's"
p2943
F-0.030849788083670164
sS'posse'
p2944
F-0.004407112583381452
sS'superb'
p2945
F-0.16700285520593483
sS'soafx'
p2946
F-0.11017781458453624
sS'genius'
p2947
F-0.11532254130871149
sS'written'
p2948
F-0.19218947681856713
sS':'
p2949
F-1.1481387956621534
sS'horrible'
p2950
F0.00501402353516137
sS'gaaaaaay'
p2951
F1.031264344511259
sS'email'
p2952
F-0.17132934548843864
sS':('
p2953
F-0.20517254982733135
sS'pants'
p2954
F0.03509816474612959
sS':&gt;'
p2955
F-0.08588718267733786
sS'ends'
p2956
F-0.005716902548209423
sS'hogging'
p2957
F0.004407112583381452
sS'job'
p2958
F1.6192649566875887
sS'merry'
p2959
F-0.2335769669192167
sS'group'
p2960
F-0.005609840707533977
sS'swift'
p2961
F-0.07521035302742056
sS'problem'
p2962
F-0.04573522038567539
sS'titties'
p2963
F0.45806497427913573
sS'hits'
p2964
F-0.2236687572469879
sS'instant'
p2965
F-0.8159282354347106
sS'diligent'
p2966
F-0.004407112583381452
sS'joke'
p2967
F-0.4211779769535558
sS'taking'
p2968
F-0.2586541796761765
sS'drug'
p2969
F0.2820552053364126
sS'1x02'
p2970
F-0.06169957616734033
sS'april'
p2971
F-0.7207669394234703
sS'6289'
p2972
F-0.013221337750144356
sS'interesting'
p2973
F0.02243936283013591
sS'stupid!\xe2\x80\x9c@person:'
p2974
F-0.004407112583381452
sS'passing'
p2975
F-0.04407112583381452
sS'cieri'
p2976
F-1.3045053246809155
sS'retweets'
p2977
F-0.2395804186924042
sS'jersey'
p2978
F-0.005357047572233128
sS'579'
p2979
F-0.20040342624712182
sS'604'
p2980
F-0.04407112583381452
sS'cc'
p2981
F-0.6855651956886418
sS'glitch'
p2982
F0.004771510148740991
sS'ca'
p2983
F-0.00501402353516137
sS'walk'
p2984
F-1.009794967715665
sS'sense!'
p2985
F0.013221337750144356
sS'taylor'
p2986
F-0.08236691863652877
sS'laugh'
p2987
F-0.32397654663701353
sS'respect'
p2988
F-0.08984265700965152
sS'gayass'
p2989
F0.057292463583958876
sS'sonsofanarchy'
p2990
F-0.11017781458453624
sS'blink'
p2991
F-0.20272717883554658
sS'quit'
p2992
F0.16124956917806102
sS"it's"
p2993
F1.5329537213417008
sS'home?'
p2994
F-0.00501402353516137
sS'cent'
p2995
F-0.7317635261708079
sS'730'
p2996
F-0.03817208118992793
sS'5am"@person:'
p2997
F-0.004407112583381452
sS'734'
p2998
F-0.004771510148740991
sS'bby'
p2999
F-0.13955490802229575
sS'compensating'
p3000
F0.02203556291690726
sS'waste'
p3001
F0.9817221238184477
sS'mojoes'
p3002
F-0.052885351000577424
sS'username'
p3003
F-0.004407112583381452
sS'mike'
p3004
F-0.0320357568078804
sS'pic'
p3005
F-0.19419447315634206
sS'powerful'
p3006
F-0.07676803848130763
sS'league'
p3007
F-0.28584512741047113
sS'hmu'
p3008
F0.4161639534183944
sS'c:'
p3009
F-0.005491127909101918
sS'finished'
p3010
F0.274556395455096
sS'kicks'
p3011
F-0.0468143910516951
sS'dalubolebysmoothkiss'
p3012
F-0.005201599005743901
sS'35@person'
p3013
F-0.04407112583381452
sS'present'
p3014
F-0.08140702967967252
sS'homes'
p3015
F-0.41512138294046674
sS'novel'
p3016
F-0.1542489404183507
sS'cow'
p3017
F4.226821840141083
sS'align'
p3018
F-0.004407112583381452
sS'nd'
p3019
F-0.011219681415067954
sS'as'
p3020
F-0.1729280012352718
sS'value'
p3021
F-0.03843789536371343
sS'21th'
p3022
F-0.057292463583958876
sS'will'
p3023
F0.5035614230633967
sS'stalin'
p3024
F0.14102760266820635
sS'stunning'
p3025
F-1.1338048760316217
sS'hahaha'
p3026
F0.47681260240950996
sS'banknotes???'
p3027
F0.026442675500288712
sS'ly'
p3028
F-0.008814225166762904
sS'suz:'
p3029
F-0.22916985433583537
sS'almost'
p3030
F-0.07047866497733687
sS'selfies!'
p3031
F-0.008814225166762904
sS'motivational'
p3032
F-0.03817208118992793
sS'av'
p3033
F-0.008814225166762904
sS'dems'
p3034
F0.12405926386726585
sS'watched'
p3035
F-0.2917117167917668
sS'arabic'
p3036
F-0.08699461487304284
sS'sits'
p3037
F-0.004407112583381452
sS'tshwane'
p3038
F-0.004407112583381452
sS'whore'
p3039
F2.756209433440325
sS'bigbusiness'
p3040
F-0.08373513908424757
sS'<u+1f61d>'
p3041
F0.37460456958742294
sS'wanker!!"'
p3042
F1.031264344511259
sS')'
p3043
F-0.3240846290141604
sS'35k'
p3044
F-0.02203556291690726
sS'chavvy'
p3045
F0.02203556291690726
sS'anorak'
p3046
F-0.26001964241950537
sS'party'
p3047
F-0.09652226683919901
sS'gets'
p3048
F0.4997578062029349
sS'cod'
p3049
F-0.12339915233468057
sS'balm'
p3050
F-0.2908694305031755
sS'ball'
p3051
F-0.11532254130871149
sS'slave'
p3052
F0.21560301201193882
sS'again'
p3053
F-0.9186507631751435
sS'promo'
p3054
F-0.3433055343790977
sS'bale'
p3055
F0.0701963294922592
sS'drink'
p3056
F1.9412441811481564
sS'upon'
p3057
F-0.43173271747674413
sS'beast'
p3058
F-0.0468143910516951
sS'aking'
p3059
F-0.004407112583381452
sS'fucked'
p3060
F-1.1911661723153544
sS'frequently'
p3061
F0.21594851658569092
sS'lot!'
p3062
F-0.19086040594963982
sS'arse'
p3063
F2.6631970359144472
sS'retard'
p3064
F0.9387149802602479
sS'ias14'
p3065
F-0.008814225166762904
sS'off'
p3066
F2.669839353752265
sS'surfboard'
p3067
F-0.07492091391748468
sS'i'
p3068
F-0.2621462367227178
sS'indonesia'
p3069
F0.3196911799656468
sS'well'
p3070
F0.2919055407799355
sS'banging'
p3071
F-0.01002804707032274
sS'thought'
p3072
F1.153417492815908
sS'taliban'
p3073
F0.8461656160092376
sS'fail'
p3074
F-0.12080481400024219
sS"idol'"
p3075
F-0.009543020297481983
sS'usual'
p3076
F-0.017628450333525808
sS'going!'
p3077
F-0.004407112583381452
sS'twat?'
p3078
F0.6831024504241241
sS'maggot'
p3079
F0.06202963193363289
sS'moments'
p3080
F-0.18306224560927203
sS"should've"
p3081
F0.009543020297481983
sS'620am'
p3082
F-0.008814225166762904
sS'\xf0\x9f\x92\x99\xf0\x9f\x92\x9c'
p3083
F-0.07932802650086612
sS'2nd"@person:'
p3084
F-0.13221337750144346
sS'cries'
p3085
F0.6875095630075055
sS'seats'
p3086
F-0.004771510148740991
sS'twat!'
p3087
F0.017628450333525808
sS'illinois'
p3088
F-0.013221337750144356
sS'happiness'
p3089
F-0.19073458405615532
sS'mom?"'
p3090
F-0.004407112583381452
sS'point'
p3091
F-0.036411463716814134
sS"28'"
p3092
F-0.008814225166762904
sS'realize'
p3093
F-0.021964511636407672
sS'stupidity\xe2\x9d\x97@person:'
p3094
F-0.1454347152515878
sS'reasons'
p3095
F-0.0461754570588832
sS'book'
p3096
F-0.00668315743103735
sS'attractive'
p3097
F0.39109383574258744
sS'281'
p3098
F-0.013221337750144356
sS'earthquakes'
p3099
F-0.07932802650086612
sS'kick'
p3100
F1.1104679800176596
sS'boyzzzz!!'
p3101
F-0.030849788083670164
sS'knob'
p3102
F1.9821076017262502
sS'guy\xe2\x80\x9c@person:'
p3103
F-0.035256900667051616
sS'stupidthingswedo4love\xe2\x80\x9d'
p3104
F-0.1454347152515878
sS'fate'
p3105
F-0.014314530446222974
sS'7000th'
p3106
F-0.33877722056061077
sS"who's"
p3107
F1.419556262318457
sS'*26'
p3108
F-0.008814225166762904
sS'260'
p3109
F-0.04407112583381452
sS'five'
p3110
F-0.005201599005743901
sS'whatever'
p3111
F1.0411632599252472
sS'*21'
p3112
F-0.023857550743704957
sS'269'
p3113
F-0.1762845033352579
sS'2nd'
p3114
F-0.5124706995187311
sS'13@person'
p3115
F-0.03817208118992793
sS'displaced'
p3116
F0.17187739075187647
sS'heeey'
p3117
F-0.08078071381068264
sS'lost'
p3118
F-0.15377163267782584
sS'mthrfckn'
p3119
F0.5200392848390106
sS'loser'
p3120
F0.11532254130871149
sS'parasite'
p3121
F0.7844660398418973
sS'82%'
p3122
F-0.004407112583381452
sS'sissy'
p3123
F0.34832024085809277
sS'(or'
p3124
F-0.8134269025924274
sS'lose'
p3125
F0.14594722023089218
sS'become'
p3126
F-1.3894781649191859
sS'starred'
p3127
F-0.04847823841719597
sS'1567'
p3128
F-0.004771510148740991
sS'italian'
p3129
F-0.02203556291690726
sS'nigga'
p3130
F-0.446630319160114
sS'emyrymz_kalangolodropsdec4"'
p3131
F-0.2147179566933448
sS'twitter'
p3132
F0.7721791205008814
sS'981'
p3133
F-0.02203556291690726
sS'searching'
p3134
F-0.03365904424520386
sS'hair'
p3135
F-0.026932657309096678
sS'homo'
p3136
F-0.035256900667051616
sS'111'
p3137
F-0.011810467458662715
sS'shes'
p3138
F0.07521035302742056
sS'112'
p3139
F-0.014314530446222974
sS'proper'
p3140
F1.7529388649356963
sS'home'
p3141
F1.290048769957397
sS'happens'
p3142
F1.6549030087225287
sS'"what'
p3143
F-0.02286761019283769
sS'est'
p3144
F-0.005357047572233128
sS'lead'
p3145
F-0.1889674793386034
sS'mumble'
p3146
F-0.052885351000577424
sS'madam!'
p3147
F-0.004407112583381452
sS'lean'
p3148
F-0.01002804707032274
sS'does'
p3149
F0.3575025173554091
sS'chains'
p3150
F-0.004407112583381452
sS'?'
p3151
F0.37924897817553166
sS'trout'
p3152
F-0.02507011767580685
sS'7up'
p3153
F-0.030849788083670164
sS'alumni'
p3154
F-0.01002804707032274
sS'slut'
p3155
F4.486471488633197
sS'pressure'
p3156
F-0.023857550743704957
sS'uptight'
p3157
F0.004407112583381452
sS'foodwaste'
p3158
F-0.017628450333525808
sS'049'
p3159
F-0.004407112583381452
sS'044'
p3160
F-0.017628450333525808
sS'043'
p3161
F-0.02203556291690726
sS'95point4fm'
p3162
F-0.22035562916907236
sS'stage'
p3163
F-0.47832393207584084
sS'421:@person'
p3164
F-0.004407112583381452
sS'about'
p3165
F-0.7737041277241954
sS'getting'
p3166
F-0.0899117555034216
sS'dogwank'
p3167
F0.21594851658569092
sS'latepost'
p3168
F-0.019086040594963966
sS'happen?'
p3169
F-0.10020171312356085
sS'\xe2\x80\x9c@person:'
p3170
F-1.373901518901907
sS'21km'
p3171
F-0.004407112583381452
sS'$220m"@person:'
p3172
F-0.008814225166762904
sS'nutella?'
p3173
F0.4407112583381446
sS'\xf0\x9f\x8f\x89\xf0\x9f\x8d\xbb\xf0\x9f\x8d\xb4\xf0\x9f\x8d\xb9'
p3174
F-0.008814225166762904
sS'!!'
p3175
F0.1738850289002123
sS'own'
p3176
F-1.3217077210569612
sS'fresh'
p3177
F-0.15146569910341745
sS'yanker'
p3178
F0.18069161591863936
sS'pussy'
p3179
F-1.1513279911839416
sS'pigging'
p3180
F-0.06610668875072179
sS'ubc'
p3181
F-0.06169957616734033
sS'three'
p3182
F-0.06731808849040774
sS'haha\xe2\x80\x9d'
p3183
F-0.4759681590051962
sS'executions'
p3184
F-0.06518230595709783
sS'doesnt'
p3185
F-0.0701963294922592
sS'promise'
p3186
F0.09883038110913414
sS'frm'
p3187
F-0.005609840707533977
sS'oughta'
p3188
F-0.06610668875072179
sS'dilarang'
p3189
F-0.057292463583958876
sS'roads'
p3190
F-0.04407112583381452
sS'lovely'
p3191
F-0.25585066470754203
sS'advantage"'
p3192
F-0.026442675500288712
sS'togetter'
p3193
F-0.004407112583381452
sS'selenators'
p3194
F-0.008814225166762904
sS'secret'
p3195
F-0.16124956917806102
sS'kidding'
p3196
F-0.13837379431348884
sS'trigger'
p3197
F0.004771510148740991
sS'biggest'
p3198
F0.5904349055660845
sS'exposure'
p3199
F-0.07157265223111486
sS'mad:'
p3200
F-0.004407112583381452
sS'?!!!'
p3201
F-0.4583397086716704
sS'buy'
p3202
F-0.4776756600690503
sS'wontrymebygrinda"'
p3203
F-0.00501402353516137
sS"i've"
p3204
F-0.10000893270543083
sS'560'
p3205
F-0.004771510148740991
sS'bus'
p3206
F-0.05653100159675272
sS'bitches'
p3207
F1.0960804155177482
sS'hw'
p3208
F0.04942015118191727
sS'but'
p3209
F-2.935011345319903
sS'701'
p3210
F-0.017628450333525808
sS'scum!'
p3211
F3.1337647094758876
sS'hi'
p3212
F0.10589147973133309
sS'gain'
p3213
F-0.005905233729331358
sS'courts'
p3214
F-0.004771510148740991
sS'bum'
p3215
F0.39126383219676175
sS'eat'
p3216
F0.27126995701459516
sS'he'
p3217
F-0.14305054152351193
sS'count'
p3218
F0.005491127909101918
sS'made'
p3219
F0.8079890310346504
sS'tactics'
p3220
F-0.22439888171459152
sS'glory'
p3221
F0.06610668875072179
sS'whether'
p3222
F0.052015990057439
sS'wish'
p3223
F-0.36344949330556
sS'signed'
p3224
F-0.005201599005743901
sS'\xc2\xab'
p3225
F-0.02203556291690726
sS'5"@person:'
p3226
F-0.006281222399639194
sS'placed'
p3227
F0.004771510148740991
sS'tosser'
p3228
F3.893229451028598
sS'limit'
p3229
F-0.1500375483246073
sS'favorites"'
p3230
F-0.1762845033352579
sS'breslaw'
p3231
F-0.019086040594963966
sS'room???'
p3232
F0.8990509670098149
sS'faggot'
p3233
F6.5117684557501265
sS'piece'
p3234
F1.3288529540026612
sS'minutes'
p3235
F-0.13523702076485963
sS'\xc2\xbb'
p3236
F-0.02507011767580685
sS'mechanics'
p3237
F-0.12339915233468057
sS'tipteaser'
p3238
F-0.47156104642181473
sS'cmon'
p3239
F-0.14984182783496924
sS'cc@person'
p3240
F-0.004407112583381452
sS'twerkteam'
p3241
F-0.2512054172527425
sS'whingeing'
p3242
F0.1939129536687837
sS'pig'
p3243
F0.6460099879476662
sS'scumbags'
p3244
F0.49359660933872196
sS'entire'
p3245
F-0.2464241883227238
sS'goodness'
p3246
F-0.11451624356978385
sS'admirer'
p3247
F-0.1366204900848249
sS'230am'
p3248
F-0.20272717883554658
sS'ew'
p3249
F0.02203556291690726
sS'spell'
p3250
F-0.02507011767580685
sS'broadway)"'
p3251
F-0.03966401325043307
sS'incredible'
p3252
F-0.10445622663016198
sS'47'
p3253
F-0.04678210201726146
sS'44'
p3254
F-0.006213901062360202
sS'guitarist'
p3255
F-0.13537863544935697
sS'43'
p3256
F-0.005989510467310102
sS'40'
p3257
F-0.8342757546750469
sS'41'
p3258
F-0.23925511620046322
sS'other'
p3259
F0.17565304360064718
sS'details'
p3260
F-0.028049203537669886
sS'sick'
p3261
F2.4754188033746787
sS'4)'
p3262
F-0.3433055343790977
sS'coffee?'
p3263
F-0.7403949140080829
sS'4%'
p3264
F-0.015042070605484112
sS'4k'
p3265
F-0.15535437959476067
sS'scumbag!'
p3266
F0.6434384371736911
sS'star'
p3267
F-0.03685906673066122
sS'0@person:'
p3268
F-0.02203556291690726
sS'class'
p3269
F-0.035937062803860616
sS'elitists'
p3270
F0.11458492716791768
sS'mr2kayatbolexyenegoa"'
p3271
F-0.41512138294046674
sS'barstard'
p3272
F0.017628450333525808
sS'stay'
p3273
F0.8425727096037229
sS'yours?'
p3274
F-0.11458492716791768
sS'chance'
p3275
F-0.15320246572423762
sS'calum'
p3276
F-0.07653906006193091
sS'rdma'
p3277
F-0.06169957616734033
sS'kinda'
p3278
F-0.10982255818203836
sS'\xe2\x80\xa6'
p3279
F-0.09699531737856612
sS'friends'
p3280
F0.2418723450001216
sS'laude'
p3281
F-0.004407112583381452
sS'goin'
p3282
F-0.3294676745461155
sS'breaks'
p3283
F0.20994644654460382
sS'\xe2\x80\x94'
p3284
F-0.5945578650137812
sS'bck'
p3285
F-0.047715101487409914
sS'\xe2\x80\x9d'
p3286
F-0.3992512979681615
sS'\xe2\x80\x9c'
p3287
F-0.004771510148740991
sS'lightskin'
p3288
F0.009543020297481983
sS'gal'
p3289
F-0.10529449423838876
sS'sasa'
p3290
F-0.10136358941777335
sS'15k:'
p3291
F-0.8373513908424747
sS'uneducated'
p3292
F0.026442675500288712
sS'lives'
p3293
F0.006281222399639194
sS'169'
p3294
F-0.01002804707032274
s.